   1               		.file	"ff.c"
   2               	__SREG__ = 0x3f
   3               	__SP_H__ = 0x3e
   4               	__SP_L__ = 0x3d
   5               	__CCP__  = 0x34
   6               	__tmp_reg__ = 0
   7               	__zero_reg__ = 1
   8               		.section	.text.clust2sect,"ax",@progbits
   9               	.global	clust2sect
  11               	clust2sect:
  12 0000 EF92      		push r14
  13 0002 FF92      		push r15
  14 0004 0F93      		push r16
  15 0006 1F93      		push r17
  16 0008 CF93      		push r28
  17 000a DF93      		push r29
  18               	/* prologue: function */
  19               	/* frame size = 0 */
  20 000c EC01      		movw r28,r24
  21 000e 7A01      		movw r14,r20
  22 0010 8B01      		movw r16,r22
  23 0012 8EEF      		ldi r24,lo8(-2)
  24 0014 9FEF      		ldi r25,hi8(-2)
  25 0016 AFEF      		ldi r26,hlo8(-2)
  26 0018 BFEF      		ldi r27,hhi8(-2)
  27 001a E80E      		add r14,r24
  28 001c F91E      		adc r15,r25
  29 001e 0A1F      		adc r16,r26
  30 0020 1B1F      		adc r17,r27
  31 0022 8A8D      		ldd r24,Y+26
  32 0024 9B8D      		ldd r25,Y+27
  33 0026 AC8D      		ldd r26,Y+28
  34 0028 BD8D      		ldd r27,Y+29
  35 002a 0297      		sbiw r24,2
  36 002c A109      		sbc r26,__zero_reg__
  37 002e B109      		sbc r27,__zero_reg__
  38 0030 E816      		cp r14,r24
  39 0032 F906      		cpc r15,r25
  40 0034 0A07      		cpc r16,r26
  41 0036 1B07      		cpc r17,r27
  42 0038 00F0      		brlo .L2
  43 003a 20E0      		ldi r18,lo8(0)
  44 003c 30E0      		ldi r19,hi8(0)
  45 003e 40E0      		ldi r20,hlo8(0)
  46 0040 50E0      		ldi r21,hhi8(0)
  47 0042 00C0      		rjmp .L3
  48               	.L2:
  49 0044 2A81      		ldd r18,Y+2
  50 0046 30E0      		ldi r19,lo8(0)
  51 0048 40E0      		ldi r20,lo8(0)
  52 004a 50E0      		ldi r21,hi8(0)
  53 004c C801      		movw r24,r16
  54 004e B701      		movw r22,r14
  55 0050 0E94 0000 		call __mulsi3
  56 0054 9B01      		movw r18,r22
  57 0056 AC01      		movw r20,r24
  58 0058 8AA5      		ldd r24,Y+42
  59 005a 9BA5      		ldd r25,Y+43
  60 005c ACA5      		ldd r26,Y+44
  61 005e BDA5      		ldd r27,Y+45
  62 0060 280F      		add r18,r24
  63 0062 391F      		adc r19,r25
  64 0064 4A1F      		adc r20,r26
  65 0066 5B1F      		adc r21,r27
  66               	.L3:
  67 0068 B901      		movw r22,r18
  68 006a CA01      		movw r24,r20
  69               	/* epilogue start */
  70 006c DF91      		pop r29
  71 006e CF91      		pop r28
  72 0070 1F91      		pop r17
  73 0072 0F91      		pop r16
  74 0074 FF90      		pop r15
  75 0076 EF90      		pop r14
  76 0078 0895      		ret
  78               		.section	.text.get_fileinfo,"ax",@progbits
  80               	get_fileinfo:
  81 0000 CF93      		push r28
  82 0002 DF93      		push r29
  83               	/* prologue: function */
  84               	/* frame size = 0 */
  85 0004 FC01      		movw r30,r24
  86 0006 AB01      		movw r20,r22
  87 0008 EB01      		movw r28,r22
  88 000a 2996      		adiw r28,9
  89 000c 8685      		ldd r24,Z+14
  90 000e 9785      		ldd r25,Z+15
  91 0010 A089      		ldd r26,Z+16
  92 0012 B189      		ldd r27,Z+17
  93 0014 0097      		sbiw r24,0
  94 0016 A105      		cpc r26,__zero_reg__
  95 0018 B105      		cpc r27,__zero_reg__
  96 001a 01F4      		brne .+2
  97 001c 00C0      		rjmp .L6
  98 001e 2289      		ldd r18,Z+18
  99 0020 3389      		ldd r19,Z+19
 100 0022 80E0      		ldi r24,lo8(0)
 101 0024 90E0      		ldi r25,hi8(0)
 102               	.L9:
 103 0026 F901      		movw r30,r18
 104 0028 E80F      		add r30,r24
 105 002a F91F      		adc r31,r25
 106 002c E081      		ld r30,Z
 107 002e E032      		cpi r30,lo8(32)
 108 0030 01F0      		breq .L7
 109 0032 E530      		cpi r30,lo8(5)
 110 0034 01F4      		brne .L8
 111 0036 E5EE      		ldi r30,lo8(-27)
 112               	.L8:
 113 0038 E993      		st Y+,r30
 114 003a 0196      		adiw r24,1
 115 003c 8830      		cpi r24,8
 116 003e 9105      		cpc r25,__zero_reg__
 117 0040 01F4      		brne .L9
 118               	.L7:
 119 0042 D901      		movw r26,r18
 120 0044 1896      		adiw r26,8
 121 0046 8C91      		ld r24,X
 122 0048 8032      		cpi r24,lo8(32)
 123 004a 01F4      		brne .L10
 124 004c FE01      		movw r30,r28
 125 004e 00C0      		rjmp .L11
 126               	.L10:
 127 0050 FE01      		movw r30,r28
 128 0052 8EE2      		ldi r24,lo8(46)
 129 0054 8193      		st Z+,r24
 130 0056 D901      		movw r26,r18
 131 0058 BE01      		movw r22,r28
 132 005a 6C5F      		subi r22,lo8(-(4))
 133 005c 7F4F      		sbci r23,hi8(-(4))
 134               	.L12:
 135 005e 1896      		adiw r26,8
 136 0060 8C91      		ld r24,X
 137 0062 1897      		sbiw r26,8
 138 0064 8032      		cpi r24,lo8(32)
 139 0066 01F0      		breq .L11
 140 0068 8193      		st Z+,r24
 141 006a 1196      		adiw r26,1
 142 006c E617      		cp r30,r22
 143 006e F707      		cpc r31,r23
 144 0070 01F4      		brne .L12
 145               	.L11:
 146 0072 E901      		movw r28,r18
 147 0074 8B85      		ldd r24,Y+11
 148 0076 DA01      		movw r26,r20
 149 0078 1896      		adiw r26,8
 150 007a 8C93      		st X,r24
 151 007c 8C8D      		ldd r24,Y+28
 152 007e 9D8D      		ldd r25,Y+29
 153 0080 AE8D      		ldd r26,Y+30
 154 0082 BF8D      		ldd r27,Y+31
 155 0084 EA01      		movw r28,r20
 156 0086 8883      		st Y,r24
 157 0088 9983      		std Y+1,r25
 158 008a AA83      		std Y+2,r26
 159 008c BB83      		std Y+3,r27
 160 008e D901      		movw r26,r18
 161 0090 5896      		adiw r26,24
 162 0092 8D91      		ld r24,X+
 163 0094 9C91      		ld r25,X
 164 0096 5997      		sbiw r26,24+1
 165 0098 9D83      		std Y+5,r25
 166 009a 8C83      		std Y+4,r24
 167 009c 5696      		adiw r26,22
 168 009e 8D91      		ld r24,X+
 169 00a0 9C91      		ld r25,X
 170 00a2 5797      		sbiw r26,22+1
 171 00a4 9F83      		std Y+7,r25
 172 00a6 8E83      		std Y+6,r24
 173 00a8 EF01      		movw r28,r30
 174               	.L6:
 175 00aa 1882      		st Y,__zero_reg__
 176               	/* epilogue start */
 177 00ac DF91      		pop r29
 178 00ae CF91      		pop r28
 179 00b0 0895      		ret
 181               		.section	.text.f_mount,"ax",@progbits
 182               	.global	f_mount
 184               	f_mount:
 185 0000 CF93      		push r28
 186 0002 DF93      		push r29
 187               	/* prologue: function */
 188               	/* frame size = 0 */
 189 0004 EB01      		movw r28,r22
 190 0006 8230      		cpi r24,lo8(2)
 191 0008 00F0      		brlo .L17
 192 000a 8BE0      		ldi r24,lo8(11)
 193 000c 00C0      		rjmp .L18
 194               	.L17:
 195 000e A82F      		mov r26,r24
 196 0010 B0E0      		ldi r27,lo8(0)
 197 0012 FD01      		movw r30,r26
 198 0014 EE0F      		lsl r30
 199 0016 FF1F      		rol r31
 200 0018 E050      		subi r30,lo8(-(FatFs))
 201 001a F040      		sbci r31,hi8(-(FatFs))
 202 001c 0190      		ld __tmp_reg__,Z+
 203 001e F081      		ld r31,Z
 204 0020 E02D      		mov r30,__tmp_reg__
 205 0022 3097      		sbiw r30,0
 206 0024 01F0      		breq .L19
 207 0026 1082      		st Z,__zero_reg__
 208               	.L19:
 209 0028 2097      		sbiw r28,0
 210 002a 01F0      		breq .L20
 211 002c 1882      		st Y,__zero_reg__
 212               	.L20:
 213 002e AA0F      		lsl r26
 214 0030 BB1F      		rol r27
 215 0032 A050      		subi r26,lo8(-(FatFs))
 216 0034 B040      		sbci r27,hi8(-(FatFs))
 217 0036 CD93      		st X+,r28
 218 0038 DC93      		st X,r29
 219 003a 80E0      		ldi r24,lo8(0)
 220               	.L18:
 221               	/* epilogue start */
 222 003c DF91      		pop r29
 223 003e CF91      		pop r28
 224 0040 0895      		ret
 226               		.section	.text.f_chdrive,"ax",@progbits
 227               	.global	f_chdrive
 229               	f_chdrive:
 230               	/* prologue: function */
 231               	/* frame size = 0 */
 232 0000 8230      		cpi r24,lo8(2)
 233 0002 00F0      		brlo .L23
 234 0004 8BE0      		ldi r24,lo8(11)
 235 0006 0895      		ret
 236               	.L23:
 237 0008 8093 0000 		sts Drive,r24
 238 000c 80E0      		ldi r24,lo8(0)
 239 000e 0895      		ret
 241               		.data
 242               	.LC0:
 243 0000 4E4F 204E 		.string	"NO NAME    FAT32   "
 243      414D 4520 
 243      2020 2046 
 243      4154 3332 
 243      2020 2000 
 244               	.LC1:
 245 0014 4E4F 204E 		.string	"NO NAME    FAT     "
 245      414D 4520 
 245      2020 2046 
 245      4154 2020 
 245      2020 2000 
 246               		.section	.text.f_mkfs,"ax",@progbits
 247               	.global	f_mkfs
 249               	f_mkfs:
 250 0000 2F92      		push r2
 251 0002 3F92      		push r3
 252 0004 4F92      		push r4
 253 0006 5F92      		push r5
 254 0008 6F92      		push r6
 255 000a 7F92      		push r7
 256 000c 8F92      		push r8
 257 000e 9F92      		push r9
 258 0010 AF92      		push r10
 259 0012 BF92      		push r11
 260 0014 CF92      		push r12
 261 0016 DF92      		push r13
 262 0018 EF92      		push r14
 263 001a FF92      		push r15
 264 001c 0F93      		push r16
 265 001e 1F93      		push r17
 266 0020 DF93      		push r29
 267 0022 CF93      		push r28
 268 0024 CDB7      		in r28,__SP_L__
 269 0026 DEB7      		in r29,__SP_H__
 270 0028 A597      		sbiw r28,37
 271 002a 0FB6      		in __tmp_reg__,__SREG__
 272 002c F894      		cli
 273 002e DEBF      		out __SP_H__,r29
 274 0030 0FBE      		out __SREG__,__tmp_reg__
 275 0032 CDBF      		out __SP_L__,r28
 276               	/* prologue: function */
 277               	/* frame size = 37 */
 278 0034 8CA3      		std Y+36,r24
 279 0036 6DA3      		std Y+37,r22
 280 0038 8A01      		movw r16,r20
 281 003a 8230      		cpi r24,lo8(2)
 282 003c 00F0      		brlo .L27
 283 003e 8BE0      		ldi r24,lo8(11)
 284 0040 00C0      		rjmp .L28
 285               	.L27:
 286 0042 2CA1      		ldd r18,Y+36
 287 0044 E22F      		mov r30,r18
 288 0046 F0E0      		ldi r31,lo8(0)
 289 0048 EE0F      		lsl r30
 290 004a FF1F      		rol r31
 291 004c E050      		subi r30,lo8(-(FatFs))
 292 004e F040      		sbci r31,hi8(-(FatFs))
 293 0050 8080      		ld r8,Z
 294 0052 9180      		ldd r9,Z+1
 295 0054 8114      		cp r8,__zero_reg__
 296 0056 9104      		cpc r9,__zero_reg__
 297 0058 01F4      		brne .L29
 298 005a 8CE0      		ldi r24,lo8(12)
 299 005c 00C0      		rjmp .L28
 300               	.L29:
 301 005e D401      		movw r26,r8
 302 0060 1C92      		st X,__zero_reg__
 303 0062 8CA1      		ldd r24,Y+36
 304 0064 0E94 0000 		call disk_initialize
 305 0068 80FF      		sbrs r24,0
 306 006a 00C0      		rjmp .L30
 307 006c 83E0      		ldi r24,lo8(3)
 308 006e 00C0      		rjmp .L28
 309               	.L30:
 310 0070 82FF      		sbrs r24,2
 311 0072 00C0      		rjmp .L31
 312 0074 8AE0      		ldi r24,lo8(10)
 313 0076 00C0      		rjmp .L28
 314               	.L31:
 315 0078 8CA1      		ldd r24,Y+36
 316 007a 61E0      		ldi r22,lo8(1)
 317 007c AE01      		movw r20,r28
 318 007e 4B5F      		subi r20,lo8(-(5))
 319 0080 5F4F      		sbci r21,hi8(-(5))
 320 0082 0E94 0000 		call disk_ioctl
 321 0086 8823      		tst r24
 322 0088 01F0      		breq .+2
 323 008a 00C0      		rjmp .L32
 324 008c 6D81      		ldd r22,Y+5
 325 008e 7E81      		ldd r23,Y+6
 326 0090 8F81      		ldd r24,Y+7
 327 0092 9885      		ldd r25,Y+8
 328 0094 6038      		cpi r22,lo8(128)
 329 0096 7105      		cpc r23,__zero_reg__
 330 0098 8105      		cpc r24,__zero_reg__
 331 009a 9105      		cpc r25,__zero_reg__
 332 009c 00F4      		brsh .+2
 333 009e 00C0      		rjmp .L32
 334 00a0 BDA1      		ldd r27,Y+37
 335 00a2 B130      		cpi r27,lo8(1)
 336 00a4 01F0      		breq .L33
 337 00a6 2FE3      		ldi r18,lo8(63)
 338 00a8 30E0      		ldi r19,hi8(63)
 339 00aa 40E0      		ldi r20,hlo8(63)
 340 00ac 50E0      		ldi r21,hhi8(63)
 341 00ae 298F      		std Y+25,r18
 342 00b0 3A8F      		std Y+26,r19
 343 00b2 4B8F      		std Y+27,r20
 344 00b4 5C8F      		std Y+28,r21
 345 00b6 00C0      		rjmp .L34
 346               	.L33:
 347 00b8 198E      		std Y+25,__zero_reg__
 348 00ba 1A8E      		std Y+26,__zero_reg__
 349 00bc 1B8E      		std Y+27,__zero_reg__
 350 00be 1C8E      		std Y+28,__zero_reg__
 351               	.L34:
 352 00c0 2B01      		movw r4,r22
 353 00c2 3C01      		movw r6,r24
 354 00c4 298D      		ldd r18,Y+25
 355 00c6 3A8D      		ldd r19,Y+26
 356 00c8 4B8D      		ldd r20,Y+27
 357 00ca 5C8D      		ldd r21,Y+28
 358 00cc 421A      		sub r4,r18
 359 00ce 530A      		sbc r5,r19
 360 00d0 640A      		sbc r6,r20
 361 00d2 750A      		sbc r7,r21
 362 00d4 C801      		movw r24,r16
 363 00d6 0197      		sbiw r24,1
 364 00d8 8023      		and r24,r16
 365 00da 9123      		and r25,r17
 366 00dc 892B      		or r24,r25
 367 00de 01F4      		brne .L35
 368 00e0 0115      		cp r16,__zero_reg__
 369 00e2 1105      		cpc r17,__zero_reg__
 370 00e4 01F4      		brne .L36
 371               	.L35:
 372 00e6 C301      		movw r24,r6
 373 00e8 B201      		movw r22,r4
 374 00ea 20ED      		ldi r18,lo8(2000)
 375 00ec 37E0      		ldi r19,hi8(2000)
 376 00ee 40E0      		ldi r20,hlo8(2000)
 377 00f0 50E0      		ldi r21,hhi8(2000)
 378 00f2 0E94 0000 		call __udivmodsi4
 379 00f6 7901      		movw r14,r18
 380 00f8 8A01      		movw r16,r20
 381 00fa 20E0      		ldi r18,lo8(vst.2648)
 382 00fc 30E0      		ldi r19,hi8(vst.2648)
 383 00fe E0E0      		ldi r30,lo8(0)
 384 0100 F0E0      		ldi r31,hi8(0)
 385 0102 00C0      		rjmp .L37
 386               	.L38:
 387 0104 3196      		adiw r30,1
 388               	.L37:
 389 0106 D901      		movw r26,r18
 390 0108 8D91      		ld r24,X+
 391 010a 9D91      		ld r25,X+
 392 010c 9D01      		movw r18,r26
 393 010e A0E0      		ldi r26,lo8(0)
 394 0110 B0E0      		ldi r27,hi8(0)
 395 0112 E816      		cp r14,r24
 396 0114 F906      		cpc r15,r25
 397 0116 0A07      		cpc r16,r26
 398 0118 1B07      		cpc r17,r27
 399 011a 00F0      		brlo .L38
 400 011c EE0F      		lsl r30
 401 011e FF1F      		rol r31
 402 0120 E050      		subi r30,lo8(-(cst.2649))
 403 0122 F040      		sbci r31,hi8(-(cst.2649))
 404 0124 0081      		ld r16,Z
 405 0126 1181      		ldd r17,Z+1
 406               	.L36:
 407 0128 1801      		movw r2,r16
 408 012a 232C      		mov r2,r3
 409 012c 3324      		clr r3
 410 012e 2694      		lsr r2
 411 0130 2114      		cp r2,__zero_reg__
 412 0132 3104      		cpc r3,__zero_reg__
 413 0134 01F4      		brne .L40
 414 0136 E1E0      		ldi r30,lo8(1)
 415 0138 2E2E      		mov r2,r30
 416 013a 312C      		mov r3,__zero_reg__
 417               	.L40:
 418 013c 9101      		movw r18,r2
 419 013e 40E0      		ldi r20,lo8(0)
 420 0140 50E0      		ldi r21,hi8(0)
 421 0142 28A3      		std Y+32,r18
 422 0144 39A3      		std Y+33,r19
 423 0146 4AA3      		std Y+34,r20
 424 0148 5BA3      		std Y+35,r21
 425 014a C301      		movw r24,r6
 426 014c B201      		movw r22,r4
 427 014e 0E94 0000 		call __udivmodsi4
 428 0152 C901      		movw r24,r18
 429 0154 DA01      		movw r26,r20
 430 0156 863F      		cpi r24,lo8(4086)
 431 0158 3FE0      		ldi r19,hi8(4086)
 432 015a 9307      		cpc r25,r19
 433 015c 30E0      		ldi r19,hlo8(4086)
 434 015e A307      		cpc r26,r19
 435 0160 30E0      		ldi r19,hhi8(4086)
 436 0162 B307      		cpc r27,r19
 437 0164 00F0      		brlo .L41
 438 0166 863F      		cpi r24,lo8(65526)
 439 0168 4FEF      		ldi r20,hi8(65526)
 440 016a 9407      		cpc r25,r20
 441 016c 40E0      		ldi r20,hlo8(65526)
 442 016e A407      		cpc r26,r20
 443 0170 40E0      		ldi r20,hhi8(65526)
 444 0172 B407      		cpc r27,r20
 445 0174 00F0      		brlo .+2
 446 0176 00C0      		rjmp .L42
 447 0178 00C0      		rjmp .L93
 448               	.L41:
 449 017a 9C01      		movw r18,r24
 450 017c AD01      		movw r20,r26
 451 017e 220F      		lsl r18
 452 0180 331F      		rol r19
 453 0182 441F      		rol r20
 454 0184 551F      		rol r21
 455 0186 280F      		add r18,r24
 456 0188 391F      		adc r19,r25
 457 018a 4A1F      		adc r20,r26
 458 018c 5B1F      		adc r21,r27
 459 018e 2F5F      		subi r18,lo8(-(1))
 460 0190 3F4F      		sbci r19,hi8(-(1))
 461 0192 4F4F      		sbci r20,hlo8(-(1))
 462 0194 5F4F      		sbci r21,hhi8(-(1))
 463 0196 5695      		lsr r21
 464 0198 4795      		ror r20
 465 019a 3795      		ror r19
 466 019c 2795      		ror r18
 467 019e 2D5F      		subi r18,lo8(-(3))
 468 01a0 3F4F      		sbci r19,hi8(-(3))
 469 01a2 4F4F      		sbci r20,hlo8(-(3))
 470 01a4 5F4F      		sbci r21,hhi8(-(3))
 471 01a6 61E0      		ldi r22,lo8(1)
 472 01a8 6D8F      		std Y+29,r22
 473               	.L88:
 474 01aa DA01      		movw r26,r20
 475 01ac C901      		movw r24,r18
 476 01ae 8150      		subi r24,lo8(-(511))
 477 01b0 9E4F      		sbci r25,hi8(-(511))
 478 01b2 AF4F      		sbci r26,hlo8(-(511))
 479 01b4 BF4F      		sbci r27,hhi8(-(511))
 480 01b6 49E0      		ldi r20,9
 481 01b8 B695      	1:	lsr r27
 482 01ba A795      		ror r26
 483 01bc 9795      		ror r25
 484 01be 8795      		ror r24
 485 01c0 4A95      		dec r20
 486 01c2 01F4      		brne 1b
 487 01c4 8D87      		std Y+13,r24
 488 01c6 9E87      		std Y+14,r25
 489 01c8 AF87      		std Y+15,r26
 490 01ca B88B      		std Y+16,r27
 491 01cc 21E0      		ldi r18,lo8(1)
 492 01ce 30E0      		ldi r19,hi8(1)
 493 01d0 40E0      		ldi r20,hlo8(1)
 494 01d2 50E0      		ldi r21,hhi8(1)
 495 01d4 298B      		std Y+17,r18
 496 01d6 3A8B      		std Y+18,r19
 497 01d8 4B8B      		std Y+19,r20
 498 01da 5C8B      		std Y+20,r21
 499 01dc 80E2      		ldi r24,lo8(32)
 500 01de 90E0      		ldi r25,hi8(32)
 501 01e0 A0E0      		ldi r26,hlo8(32)
 502 01e2 B0E0      		ldi r27,hhi8(32)
 503 01e4 8987      		std Y+9,r24
 504 01e6 9A87      		std Y+10,r25
 505 01e8 AB87      		std Y+11,r26
 506 01ea BC87      		std Y+12,r27
 507               	.L87:
 508 01ec 2989      		ldd r18,Y+17
 509 01ee 3A89      		ldd r19,Y+18
 510 01f0 4B89      		ldd r20,Y+19
 511 01f2 5C89      		ldd r21,Y+20
 512 01f4 898D      		ldd r24,Y+25
 513 01f6 9A8D      		ldd r25,Y+26
 514 01f8 AB8D      		ldd r26,Y+27
 515 01fa BC8D      		ldd r27,Y+28
 516 01fc 280F      		add r18,r24
 517 01fe 391F      		adc r19,r25
 518 0200 4A1F      		adc r20,r26
 519 0202 5B1F      		adc r21,r27
 520 0204 2D8B      		std Y+21,r18
 521 0206 3E8B      		std Y+22,r19
 522 0208 4F8B      		std Y+23,r20
 523 020a 588F      		std Y+24,r21
 524 020c A984      		ldd r10,Y+9
 525 020e BA84      		ldd r11,Y+10
 526 0210 CB84      		ldd r12,Y+11
 527 0212 DC84      		ldd r13,Y+12
 528 0214 2D85      		ldd r18,Y+13
 529 0216 3E85      		ldd r19,Y+14
 530 0218 4F85      		ldd r20,Y+15
 531 021a 5889      		ldd r21,Y+16
 532 021c A20E      		add r10,r18
 533 021e B31E      		adc r11,r19
 534 0220 C41E      		adc r12,r20
 535 0222 D51E      		adc r13,r21
 536 0224 8D89      		ldd r24,Y+21
 537 0226 9E89      		ldd r25,Y+22
 538 0228 AF89      		ldd r26,Y+23
 539 022a B88D      		ldd r27,Y+24
 540 022c A80E      		add r10,r24
 541 022e B91E      		adc r11,r25
 542 0230 CA1E      		adc r12,r26
 543 0232 DB1E      		adc r13,r27
 544 0234 88A1      		ldd r24,Y+32
 545 0236 99A1      		ldd r25,Y+33
 546 0238 AAA1      		ldd r26,Y+34
 547 023a BBA1      		ldd r27,Y+35
 548 023c 8A0D      		add r24,r10
 549 023e 9B1D      		adc r25,r11
 550 0240 AC1D      		adc r26,r12
 551 0242 BD1D      		adc r27,r13
 552 0244 4816      		cp r4,r24
 553 0246 5906      		cpc r5,r25
 554 0248 6A06      		cpc r6,r26
 555 024a 7B06      		cpc r7,r27
 556 024c 00F4      		brsh .+2
 557 024e 00C0      		rjmp .L44
 558 0250 4D82      		std Y+5,r4
 559 0252 5E82      		std Y+6,r5
 560 0254 6F82      		std Y+7,r6
 561 0256 7886      		std Y+8,r7
 562 0258 8CA1      		ldd r24,Y+36
 563 025a 63E0      		ldi r22,lo8(3)
 564 025c AE01      		movw r20,r28
 565 025e 4F5F      		subi r20,lo8(-(1))
 566 0260 5F4F      		sbci r21,hi8(-(1))
 567 0262 0E94 0000 		call disk_ioctl
 568 0266 8823      		tst r24
 569 0268 01F0      		breq .+2
 570 026a 00C0      		rjmp .L32
 571 026c 2981      		ldd r18,Y+1
 572 026e 3A81      		ldd r19,Y+2
 573 0270 4B81      		ldd r20,Y+3
 574 0272 5C81      		ldd r21,Y+4
 575 0274 DA01      		movw r26,r20
 576 0276 C901      		movw r24,r18
 577 0278 0197      		sbiw r24,1
 578 027a A109      		sbc r26,__zero_reg__
 579 027c B109      		sbc r27,__zero_reg__
 580 027e 8030      		cpi r24,lo8(32768)
 581 0280 E0E8      		ldi r30,hi8(32768)
 582 0282 9E07      		cpc r25,r30
 583 0284 E0E0      		ldi r30,hlo8(32768)
 584 0286 AE07      		cpc r26,r30
 585 0288 E0E0      		ldi r30,hhi8(32768)
 586 028a BE07      		cpc r27,r30
 587 028c 00F0      		brlo .+2
 588 028e 00C0      		rjmp .L44
 589 0290 7C01      		movw r14,r24
 590 0292 8D01      		movw r16,r26
 591 0294 EA0C      		add r14,r10
 592 0296 FB1C      		adc r15,r11
 593 0298 0C1D      		adc r16,r12
 594 029a 1D1D      		adc r17,r13
 595 029c 8827      		clr r24
 596 029e 9927      		clr r25
 597 02a0 DC01      		movw r26,r24
 598 02a2 821B      		sub r24,r18
 599 02a4 930B      		sbc r25,r19
 600 02a6 A40B      		sbc r26,r20
 601 02a8 B50B      		sbc r27,r21
 602 02aa E822      		and r14,r24
 603 02ac F922      		and r15,r25
 604 02ae 0A23      		and r16,r26
 605 02b0 1B23      		and r17,r27
 606 02b2 EA18      		sub r14,r10
 607 02b4 FB08      		sbc r15,r11
 608 02b6 0C09      		sbc r16,r12
 609 02b8 1D09      		sbc r17,r13
 610 02ba FD8D      		ldd r31,Y+29
 611 02bc F330      		cpi r31,lo8(3)
 612 02be 01F4      		brne .L45
 613 02c0 2989      		ldd r18,Y+17
 614 02c2 3A89      		ldd r19,Y+18
 615 02c4 4B89      		ldd r20,Y+19
 616 02c6 5C89      		ldd r21,Y+20
 617 02c8 2E0D      		add r18,r14
 618 02ca 3F1D      		adc r19,r15
 619 02cc 401F      		adc r20,r16
 620 02ce 511F      		adc r21,r17
 621 02d0 298B      		std Y+17,r18
 622 02d2 3A8B      		std Y+18,r19
 623 02d4 4B8B      		std Y+19,r20
 624 02d6 5C8B      		std Y+20,r21
 625 02d8 8D89      		ldd r24,Y+21
 626 02da 9E89      		ldd r25,Y+22
 627 02dc AF89      		ldd r26,Y+23
 628 02de B88D      		ldd r27,Y+24
 629 02e0 8E0D      		add r24,r14
 630 02e2 9F1D      		adc r25,r15
 631 02e4 A01F      		adc r26,r16
 632 02e6 B11F      		adc r27,r17
 633 02e8 8D8B      		std Y+21,r24
 634 02ea 9E8B      		std Y+22,r25
 635 02ec AF8B      		std Y+23,r26
 636 02ee B88F      		std Y+24,r27
 637 02f0 00C0      		rjmp .L46
 638               	.L45:
 639 02f2 2D85      		ldd r18,Y+13
 640 02f4 3E85      		ldd r19,Y+14
 641 02f6 4F85      		ldd r20,Y+15
 642 02f8 5889      		ldd r21,Y+16
 643 02fa 2E0D      		add r18,r14
 644 02fc 3F1D      		adc r19,r15
 645 02fe 401F      		adc r20,r16
 646 0300 511F      		adc r21,r17
 647 0302 2D87      		std Y+13,r18
 648 0304 3E87      		std Y+14,r19
 649 0306 4F87      		std Y+15,r20
 650 0308 588B      		std Y+16,r21
 651               	.L46:
 652 030a AD80      		ldd r10,Y+5
 653 030c BE80      		ldd r11,Y+6
 654 030e CF80      		ldd r12,Y+7
 655 0310 D884      		ldd r13,Y+8
 656 0312 C601      		movw r24,r12
 657 0314 B501      		movw r22,r10
 658 0316 2989      		ldd r18,Y+17
 659 0318 3A89      		ldd r19,Y+18
 660 031a 4B89      		ldd r20,Y+19
 661 031c 5C89      		ldd r21,Y+20
 662 031e 621B      		sub r22,r18
 663 0320 730B      		sbc r23,r19
 664 0322 840B      		sbc r24,r20
 665 0324 950B      		sbc r25,r21
 666 0326 2D85      		ldd r18,Y+13
 667 0328 3E85      		ldd r19,Y+14
 668 032a 4F85      		ldd r20,Y+15
 669 032c 5889      		ldd r21,Y+16
 670 032e 621B      		sub r22,r18
 671 0330 730B      		sbc r23,r19
 672 0332 840B      		sbc r24,r20
 673 0334 950B      		sbc r25,r21
 674 0336 2985      		ldd r18,Y+9
 675 0338 3A85      		ldd r19,Y+10
 676 033a 4B85      		ldd r20,Y+11
 677 033c 5C85      		ldd r21,Y+12
 678 033e 621B      		sub r22,r18
 679 0340 730B      		sbc r23,r19
 680 0342 840B      		sbc r24,r20
 681 0344 950B      		sbc r25,r21
 682 0346 28A1      		ldd r18,Y+32
 683 0348 39A1      		ldd r19,Y+33
 684 034a 4AA1      		ldd r20,Y+34
 685 034c 5BA1      		ldd r21,Y+35
 686 034e 0E94 0000 		call __udivmodsi4
 687 0352 2901      		movw r4,r18
 688 0354 3A01      		movw r6,r20
 689 0356 3D8D      		ldd r19,Y+29
 690 0358 3230      		cpi r19,lo8(2)
 691 035a 01F4      		brne .L47
 692 035c 46EF      		ldi r20,lo8(4086)
 693 035e 4416      		cp r4,r20
 694 0360 4FE0      		ldi r20,hi8(4086)
 695 0362 5406      		cpc r5,r20
 696 0364 40E0      		ldi r20,hlo8(4086)
 697 0366 6406      		cpc r6,r20
 698 0368 40E0      		ldi r20,hhi8(4086)
 699 036a 7406      		cpc r7,r20
 700 036c 00F4      		brsh .L48
 701 036e 00C0      		rjmp .L44
 702               	.L47:
 703 0370 5D8D      		ldd r21,Y+29
 704 0372 5330      		cpi r21,lo8(3)
 705 0374 01F4      		brne .L48
 706 0376 66EF      		ldi r22,lo8(65526)
 707 0378 4616      		cp r4,r22
 708 037a 6FEF      		ldi r22,hi8(65526)
 709 037c 5606      		cpc r5,r22
 710 037e 60E0      		ldi r22,hlo8(65526)
 711 0380 6606      		cpc r6,r22
 712 0382 60E0      		ldi r22,hhi8(65526)
 713 0384 7606      		cpc r7,r22
 714 0386 00F4      		brsh .+2
 715 0388 00C0      		rjmp .L44
 716               	.L48:
 717 038a E982      		std Y+1,r14
 718 038c FA82      		std Y+2,r15
 719 038e 0B83      		std Y+3,r16
 720 0390 1C83      		std Y+4,r17
 721 0392 8DA1      		ldd r24,Y+37
 722 0394 8130      		cpi r24,lo8(1)
 723 0396 01F4      		brne .L49
 724 0398 10EF      		ldi r17,lo8(-16)
 725 039a 00C0      		rjmp .L50
 726               	.L49:
 727 039c 498D      		ldd r20,Y+25
 728 039e 5A8D      		ldd r21,Y+26
 729 03a0 6B8D      		ldd r22,Y+27
 730 03a2 7C8D      		ldd r23,Y+28
 731 03a4 4A0D      		add r20,r10
 732 03a6 5B1D      		adc r21,r11
 733 03a8 6C1D      		adc r22,r12
 734 03aa 7D1D      		adc r23,r13
 735 03ac 32E3      		ldi r19,lo8(50)
 736 03ae E32E      		mov r14,r19
 737 03b0 F12C      		mov r15,__zero_reg__
 738 03b2 E80C      		add r14,r8
 739 03b4 F91C      		adc r15,r9
 740 03b6 F701      		movw r30,r14
 741 03b8 20E0      		ldi r18,lo8(512)
 742 03ba 32E0      		ldi r19,hi8(512)
 743 03bc 00C0      		rjmp .L51
 744               	.L52:
 745 03be 1192      		st Z+,__zero_reg__
 746               	.L51:
 747 03c0 2150      		subi r18,lo8(-(-1))
 748 03c2 3040      		sbci r19,hi8(-(-1))
 749 03c4 9FEF      		ldi r25,hi8(-1)
 750 03c6 2F3F      		cpi r18,lo8(-1)
 751 03c8 3907      		cpc r19,r25
 752 03ca 01F4      		brne .L52
 753 03cc 8401      		movw r16,r8
 754 03ce 0051      		subi r16,lo8(-(496))
 755 03d0 1E4F      		sbci r17,hi8(-(496))
 756 03d2 80E8      		ldi r24,lo8(65920)
 757 03d4 91E0      		ldi r25,hi8(65920)
 758 03d6 A1E0      		ldi r26,hlo8(65920)
 759 03d8 B0E0      		ldi r27,hhi8(65920)
 760 03da F801      		movw r30,r16
 761 03dc 8083      		st Z,r24
 762 03de 9183      		std Z+1,r25
 763 03e0 A283      		std Z+2,r26
 764 03e2 B383      		std Z+3,r27
 765 03e4 4030      		cpi r20,lo8(16450560)
 766 03e6 F4E0      		ldi r31,hi8(16450560)
 767 03e8 5F07      		cpc r21,r31
 768 03ea FBEF      		ldi r31,hlo8(16450560)
 769 03ec 6F07      		cpc r22,r31
 770 03ee F0E0      		ldi r31,hhi8(16450560)
 771 03f0 7F07      		cpc r23,r31
 772 03f2 00F4      		brsh .L53
 773 03f4 CB01      		movw r24,r22
 774 03f6 BA01      		movw r22,r20
 775 03f8 21EC      		ldi r18,lo8(16065)
 776 03fa 3EE3      		ldi r19,hi8(16065)
 777 03fc 40E0      		ldi r20,hlo8(16065)
 778 03fe 50E0      		ldi r21,hhi8(16065)
 779 0400 0E94 0000 		call __udivmodsi4
 780 0404 C901      		movw r24,r18
 781 0406 DA01      		movw r26,r20
 782 0408 F801      		movw r30,r16
 783 040a 2783      		std Z+7,r18
 784 040c 22E0      		ldi r18,2
 785 040e B695      	1:	lsr r27
 786 0410 A795      		ror r26
 787 0412 9795      		ror r25
 788 0414 8795      		ror r24
 789 0416 2A95      		dec r18
 790 0418 01F4      		brne 1b
 791 041a 8F63      		ori r24,lo8(63)
 792 041c 8683      		std Z+6,r24
 793 041e 00C0      		rjmp .L54
 794               	.L53:
 795 0420 D801      		movw r26,r16
 796 0422 1796      		adiw r26,6+1
 797 0424 3C93      		st X,r19
 798 0426 2E93      		st -X,r18
 799 0428 1697      		sbiw r26,6
 800               	.L54:
 801 042a 8EEF      		ldi r24,lo8(-2)
 802 042c F801      		movw r30,r16
 803 042e 8583      		std Z+5,r24
 804 0430 FD8D      		ldd r31,Y+29
 805 0432 F330      		cpi r31,lo8(3)
 806 0434 01F0      		breq .L55
 807 0436 8D81      		ldd r24,Y+5
 808 0438 9E81      		ldd r25,Y+6
 809 043a AF81      		ldd r26,Y+7
 810 043c B885      		ldd r27,Y+8
 811 043e 8050      		subi r24,lo8(65536)
 812 0440 9040      		sbci r25,hi8(65536)
 813 0442 A140      		sbci r26,hlo8(65536)
 814 0444 B040      		sbci r27,hhi8(65536)
 815 0446 00F0      		brlo .L56
 816 0448 86E0      		ldi r24,lo8(6)
 817 044a 00C0      		rjmp .L57
 818               	.L56:
 819 044c 84E0      		ldi r24,lo8(4)
 820               	.L57:
 821 044e D801      		movw r26,r16
 822 0450 1496      		adiw r26,4
 823 0452 8C93      		st X,r24
 824 0454 00C0      		rjmp .L58
 825               	.L55:
 826 0456 8CE0      		ldi r24,lo8(12)
 827 0458 F801      		movw r30,r16
 828 045a 8483      		std Z+4,r24
 829               	.L58:
 830 045c 8FE3      		ldi r24,lo8(63)
 831 045e 90E0      		ldi r25,hi8(63)
 832 0460 A0E0      		ldi r26,hlo8(63)
 833 0462 B0E0      		ldi r27,hhi8(63)
 834 0464 F801      		movw r30,r16
 835 0466 8087      		std Z+8,r24
 836 0468 9187      		std Z+9,r25
 837 046a A287      		std Z+10,r26
 838 046c B387      		std Z+11,r27
 839 046e 8D81      		ldd r24,Y+5
 840 0470 9E81      		ldd r25,Y+6
 841 0472 AF81      		ldd r26,Y+7
 842 0474 B885      		ldd r27,Y+8
 843 0476 8487      		std Z+12,r24
 844 0478 9587      		std Z+13,r25
 845 047a A687      		std Z+14,r26
 846 047c B787      		std Z+15,r27
 847 047e 005C      		subi r16,lo8(-(64))
 848 0480 1F4F      		sbci r17,hi8(-(64))
 849 0482 85E5      		ldi r24,lo8(-21931)
 850 0484 9AEA      		ldi r25,hi8(-21931)
 851 0486 D801      		movw r26,r16
 852 0488 8D93      		st X+,r24
 853 048a 9C93      		st X,r25
 854 048c 8CA1      		ldd r24,Y+36
 855 048e B701      		movw r22,r14
 856 0490 20E0      		ldi r18,lo8(0)
 857 0492 30E0      		ldi r19,hi8(0)
 858 0494 40E0      		ldi r20,hlo8(0)
 859 0496 50E0      		ldi r21,hhi8(0)
 860 0498 01E0      		ldi r16,lo8(1)
 861 049a 0E94 0000 		call disk_write
 862 049e 8823      		tst r24
 863 04a0 01F0      		breq .+2
 864 04a2 00C0      		rjmp .L32
 865 04a4 18EF      		ldi r17,lo8(-8)
 866               	.L50:
 867 04a6 A2E3      		ldi r26,lo8(50)
 868 04a8 EA2E      		mov r14,r26
 869 04aa F12C      		mov r15,__zero_reg__
 870 04ac E80C      		add r14,r8
 871 04ae F91C      		adc r15,r9
 872 04b0 F701      		movw r30,r14
 873 04b2 80E0      		ldi r24,lo8(512)
 874 04b4 92E0      		ldi r25,hi8(512)
 875 04b6 00C0      		rjmp .L59
 876               	.L60:
 877 04b8 1192      		st Z+,__zero_reg__
 878               	.L59:
 879 04ba 0197      		sbiw r24,1
 880 04bc BFEF      		ldi r27,hi8(-1)
 881 04be 8F3F      		cpi r24,lo8(-1)
 882 04c0 9B07      		cpc r25,r27
 883 04c2 01F4      		brne .L60
 884 04c4 8BEE      		ldi r24,lo8(9502443)
 885 04c6 9EEF      		ldi r25,hi8(9502443)
 886 04c8 A0E9      		ldi r26,hlo8(9502443)
 887 04ca B0E0      		ldi r27,hhi8(9502443)
 888 04cc F401      		movw r30,r8
 889 04ce 82AB      		std Z+50,r24
 890 04d0 93AB      		std Z+51,r25
 891 04d2 A4AB      		std Z+52,r26
 892 04d4 B5AB      		std Z+53,r27
 893 04d6 80E0      		ldi r24,lo8(512)
 894 04d8 92E0      		ldi r25,hi8(512)
 895 04da D701      		movw r26,r14
 896 04dc 1C96      		adiw r26,11+1
 897 04de 9C93      		st X,r25
 898 04e0 8E93      		st -X,r24
 899 04e2 1B97      		sbiw r26,11
 900 04e4 27AE      		std Z+63,r2
 901 04e6 E989      		ldd r30,Y+17
 902 04e8 FA89      		ldd r31,Y+18
 903 04ea 1F96      		adiw r26,14+1
 904 04ec FC93      		st X,r31
 905 04ee EE93      		st -X,r30
 906 04f0 1E97      		sbiw r26,14
 907 04f2 22E4      		ldi r18,lo8(66)
 908 04f4 30E0      		ldi r19,hi8(66)
 909 04f6 820E      		add r8,r18
 910 04f8 931E      		adc r9,r19
 911 04fa 81E0      		ldi r24,lo8(1)
 912 04fc D401      		movw r26,r8
 913 04fe 8C93      		st X,r24
 914 0500 EEEB      		ldi r30,lo8(-66)
 915 0502 FFEF      		ldi r31,hi8(-66)
 916 0504 8E0E      		add r8,r30
 917 0506 9F1E      		adc r9,r31
 918 0508 FD8D      		ldd r31,Y+29
 919 050a F330      		cpi r31,lo8(3)
 920 050c 01F0      		breq .L61
 921 050e 212C      		mov r2,__zero_reg__
 922 0510 F2E0      		ldi r31,hi8(512)
 923 0512 3F2E      		mov r3,r31
 924 0514 00C0      		rjmp .L62
 925               	.L61:
 926 0516 2224      		clr r2
 927 0518 3324      		clr r3
 928               	.L62:
 929 051a D701      		movw r26,r14
 930 051c 5296      		adiw r26,17+1
 931 051e 3C92      		st X,r3
 932 0520 2E92      		st -X,r2
 933 0522 5197      		sbiw r26,17
 934 0524 8D81      		ldd r24,Y+5
 935 0526 9E81      		ldd r25,Y+6
 936 0528 AF81      		ldd r26,Y+7
 937 052a B885      		ldd r27,Y+8
 938 052c 8030      		cpi r24,lo8(65536)
 939 052e E0E0      		ldi r30,hi8(65536)
 940 0530 9E07      		cpc r25,r30
 941 0532 E1E0      		ldi r30,hlo8(65536)
 942 0534 AE07      		cpc r26,r30
 943 0536 E0E0      		ldi r30,hhi8(65536)
 944 0538 BE07      		cpc r27,r30
 945 053a 00F4      		brsh .L63
 946 053c F701      		movw r30,r14
 947 053e 948B      		std Z+20,r25
 948 0540 838B      		std Z+19,r24
 949 0542 00C0      		rjmp .L64
 950               	.L63:
 951 0544 F701      		movw r30,r14
 952 0546 80A3      		std Z+32,r24
 953 0548 91A3      		std Z+33,r25
 954 054a A2A3      		std Z+34,r26
 955 054c B3A3      		std Z+35,r27
 956               	.L64:
 957 054e 27E4      		ldi r18,lo8(71)
 958 0550 30E0      		ldi r19,hi8(71)
 959 0552 820E      		add r8,r18
 960 0554 931E      		adc r9,r19
 961 0556 D401      		movw r26,r8
 962 0558 1C93      		st X,r17
 963 055a E9EB      		ldi r30,lo8(-71)
 964 055c FFEF      		ldi r31,hi8(-71)
 965 055e 8E0E      		add r8,r30
 966 0560 9F1E      		adc r9,r31
 967 0562 8FE3      		ldi r24,lo8(63)
 968 0564 90E0      		ldi r25,hi8(63)
 969 0566 D701      		movw r26,r14
 970 0568 5996      		adiw r26,24+1
 971 056a 9C93      		st X,r25
 972 056c 8E93      		st -X,r24
 973 056e 5897      		sbiw r26,24
 974 0570 8FEF      		ldi r24,lo8(255)
 975 0572 90E0      		ldi r25,hi8(255)
 976 0574 5B96      		adiw r26,26+1
 977 0576 9C93      		st X,r25
 978 0578 8E93      		st -X,r24
 979 057a 5A97      		sbiw r26,26
 980 057c 298D      		ldd r18,Y+25
 981 057e 3A8D      		ldd r19,Y+26
 982 0580 4B8D      		ldd r20,Y+27
 983 0582 5C8D      		ldd r21,Y+28
 984 0584 5C96      		adiw r26,28
 985 0586 2D93      		st X+,r18
 986 0588 3D93      		st X+,r19
 987 058a 4D93      		st X+,r20
 988 058c 5C93      		st X,r21
 989 058e 5F97      		sbiw r26,28+3
 990 0590 0E94 0000 		call get_fattime
 991 0594 6983      		std Y+1,r22
 992 0596 7A83      		std Y+2,r23
 993 0598 8B83      		std Y+3,r24
 994 059a 9C83      		std Y+4,r25
 995 059c BD8D      		ldd r27,Y+29
 996 059e B330      		cpi r27,lo8(3)
 997 05a0 01F0      		breq .+2
 998 05a2 00C0      		rjmp .L65
 999 05a4 E3E4      		ldi r30,lo8(67)
 1000 05a6 F0E0      		ldi r31,hi8(67)
 1001 05a8 EE0E      		add r14,r30
 1002 05aa FF1E      		adc r15,r31
 1003 05ac D701      		movw r26,r14
 1004 05ae 6D93      		st X+,r22
 1005 05b0 7D93      		st X+,r23
 1006 05b2 8D93      		st X+,r24
 1007 05b4 9C93      		st X,r25
 1008 05b6 1397      		sbiw r26,3
 1009 05b8 EDEB      		ldi r30,lo8(-67)
 1010 05ba FFEF      		ldi r31,hi8(-67)
 1011 05bc EE0E      		add r14,r30
 1012 05be FF1E      		adc r15,r31
 1013 05c0 2D85      		ldd r18,Y+13
 1014 05c2 3E85      		ldd r19,Y+14
 1015 05c4 4F85      		ldd r20,Y+15
 1016 05c6 5889      		ldd r21,Y+16
 1017 05c8 D701      		movw r26,r14
 1018 05ca 9496      		adiw r26,36
 1019 05cc 2D93      		st X+,r18
 1020 05ce 3D93      		st X+,r19
 1021 05d0 4D93      		st X+,r20
 1022 05d2 5C93      		st X,r21
 1023 05d4 9797      		sbiw r26,36+3
 1024 05d6 82E0      		ldi r24,lo8(2)
 1025 05d8 90E0      		ldi r25,hi8(2)
 1026 05da A0E0      		ldi r26,hlo8(2)
 1027 05dc B0E0      		ldi r27,hhi8(2)
 1028 05de F701      		movw r30,r14
 1029 05e0 84A7      		std Z+44,r24
 1030 05e2 95A7      		std Z+45,r25
 1031 05e4 A6A7      		std Z+46,r26
 1032 05e6 B7A7      		std Z+47,r27
 1033 05e8 81E0      		ldi r24,lo8(1)
 1034 05ea 90E0      		ldi r25,hi8(1)
 1035 05ec 91AB      		std Z+49,r25
 1036 05ee 80AB      		std Z+48,r24
 1037 05f0 86E0      		ldi r24,lo8(6)
 1038 05f2 90E0      		ldi r25,hi8(6)
 1039 05f4 93AB      		std Z+51,r25
 1040 05f6 82AB      		std Z+50,r24
 1041 05f8 22E7      		ldi r18,lo8(114)
 1042 05fa 30E0      		ldi r19,hi8(114)
 1043 05fc 820E      		add r8,r18
 1044 05fe 931E      		adc r9,r19
 1045 0600 80E8      		ldi r24,lo8(-128)
 1046 0602 D401      		movw r26,r8
 1047 0604 8C93      		st X,r24
 1048 0606 E2E0      		ldi r30,lo8(2)
 1049 0608 F0E0      		ldi r31,hi8(2)
 1050 060a 8E0E      		add r8,r30
 1051 060c 9F1E      		adc r9,r31
 1052 060e 89E2      		ldi r24,lo8(41)
 1053 0610 D401      		movw r26,r8
 1054 0612 8C93      		st X,r24
 1055 0614 ECE8      		ldi r30,lo8(-116)
 1056 0616 FFEF      		ldi r31,hi8(-116)
 1057 0618 8E0E      		add r8,r30
 1058 061a 9F1E      		adc r9,r31
 1059 061c 9701      		movw r18,r14
 1060 061e 295B      		subi r18,lo8(-(71))
 1061 0620 3F4F      		sbci r19,hi8(-(71))
 1062 0622 D901      		movw r26,r18
 1063 0624 E0E0      		ldi r30,lo8(.LC0)
 1064 0626 F0E0      		ldi r31,hi8(.LC0)
 1065 0628 00C0      		rjmp .L66
 1066               	.L67:
 1067 062a 8191      		ld r24,Z+
 1068 062c 9191      		ld r25,Z+
 1069 062e 8D93      		st X+,r24
 1070 0630 9D93      		st X+,r25
 1071               	.L66:
 1072 0632 40E0      		ldi r20,hi8(.LC0+18)
 1073 0634 E030      		cpi r30,lo8(.LC0+18)
 1074 0636 F407      		cpc r31,r20
 1075 0638 01F4      		brne .L67
 1076 063a 00C0      		rjmp .L91
 1077               	.L65:
 1078 063c F701      		movw r30,r14
 1079 063e 67A3      		std Z+39,r22
 1080 0640 70A7      		std Z+40,r23
 1081 0642 81A7      		std Z+41,r24
 1082 0644 92A7      		std Z+42,r25
 1083 0646 2D85      		ldd r18,Y+13
 1084 0648 3E85      		ldd r19,Y+14
 1085 064a 378B      		std Z+23,r19
 1086 064c 268B      		std Z+22,r18
 1087 064e 46E5      		ldi r20,lo8(86)
 1088 0650 50E0      		ldi r21,hi8(86)
 1089 0652 840E      		add r8,r20
 1090 0654 951E      		adc r9,r21
 1091 0656 80E8      		ldi r24,lo8(-128)
 1092 0658 D401      		movw r26,r8
 1093 065a 8C93      		st X,r24
 1094 065c E2E0      		ldi r30,lo8(2)
 1095 065e F0E0      		ldi r31,hi8(2)
 1096 0660 8E0E      		add r8,r30
 1097 0662 9F1E      		adc r9,r31
 1098 0664 89E2      		ldi r24,lo8(41)
 1099 0666 D401      		movw r26,r8
 1100 0668 8C93      		st X,r24
 1101 066a E8EA      		ldi r30,lo8(-88)
 1102 066c FFEF      		ldi r31,hi8(-88)
 1103 066e 8E0E      		add r8,r30
 1104 0670 9F1E      		adc r9,r31
 1105 0672 9701      		movw r18,r14
 1106 0674 255D      		subi r18,lo8(-(43))
 1107 0676 3F4F      		sbci r19,hi8(-(43))
 1108 0678 D901      		movw r26,r18
 1109 067a E0E0      		ldi r30,lo8(.LC1)
 1110 067c F0E0      		ldi r31,hi8(.LC1)
 1111 067e 00C0      		rjmp .L69
 1112               	.L70:
 1113 0680 8191      		ld r24,Z+
 1114 0682 9191      		ld r25,Z+
 1115 0684 8D93      		st X+,r24
 1116 0686 9D93      		st X+,r25
 1117               	.L69:
 1118 0688 40E0      		ldi r20,hi8(.LC1+18)
 1119 068a E030      		cpi r30,lo8(.LC1+18)
 1120 068c F407      		cpc r31,r20
 1121 068e 01F4      		brne .L70
 1122               	.L91:
 1123 0690 80E2      		ldi r24,lo8(32)
 1124 0692 D901      		movw r26,r18
 1125 0694 5296      		adiw r26,18
 1126 0696 8C93      		st X,r24
 1127 0698 F701      		movw r30,r14
 1128 069a E250      		subi r30,lo8(-(510))
 1129 069c FE4F      		sbci r31,hi8(-(510))
 1130 069e FF8F      		std Y+31,r31
 1131 06a0 EE8F      		std Y+30,r30
 1132 06a2 85E5      		ldi r24,lo8(-21931)
 1133 06a4 9AEA      		ldi r25,hi8(-21931)
 1134 06a6 9183      		std Z+1,r25
 1135 06a8 8083      		st Z,r24
 1136 06aa 8CA1      		ldd r24,Y+36
 1137 06ac B701      		movw r22,r14
 1138 06ae 298D      		ldd r18,Y+25
 1139 06b0 3A8D      		ldd r19,Y+26
 1140 06b2 4B8D      		ldd r20,Y+27
 1141 06b4 5C8D      		ldd r21,Y+28
 1142 06b6 01E0      		ldi r16,lo8(1)
 1143 06b8 0E94 0000 		call disk_write
 1144 06bc 8823      		tst r24
 1145 06be 01F0      		breq .+2
 1146 06c0 00C0      		rjmp .L32
 1147 06c2 FD8D      		ldd r31,Y+29
 1148 06c4 F330      		cpi r31,lo8(3)
 1149 06c6 01F4      		brne .L71
 1150 06c8 298D      		ldd r18,Y+25
 1151 06ca 3A8D      		ldd r19,Y+26
 1152 06cc 4B8D      		ldd r20,Y+27
 1153 06ce 5C8D      		ldd r21,Y+28
 1154 06d0 2A5F      		subi r18,lo8(-(6))
 1155 06d2 3F4F      		sbci r19,hi8(-(6))
 1156 06d4 4F4F      		sbci r20,hlo8(-(6))
 1157 06d6 5F4F      		sbci r21,hhi8(-(6))
 1158 06d8 8CA1      		ldd r24,Y+36
 1159 06da B701      		movw r22,r14
 1160 06dc 0E94 0000 		call disk_write
 1161               	.L71:
 1162 06e0 F701      		movw r30,r14
 1163 06e2 80E0      		ldi r24,lo8(512)
 1164 06e4 92E0      		ldi r25,hi8(512)
 1165 06e6 00C0      		rjmp .L72
 1166               	.L73:
 1167 06e8 1192      		st Z+,__zero_reg__
 1168               	.L72:
 1169 06ea 0197      		sbiw r24,1
 1170 06ec 2FEF      		ldi r18,hi8(-1)
 1171 06ee 8F3F      		cpi r24,lo8(-1)
 1172 06f0 9207      		cpc r25,r18
 1173 06f2 01F4      		brne .L73
 1174 06f4 212F      		mov r18,r17
 1175 06f6 30E0      		ldi r19,lo8(0)
 1176 06f8 40E0      		ldi r20,lo8(0)
 1177 06fa 50E0      		ldi r21,hi8(0)
 1178 06fc 6D8D      		ldd r22,Y+29
 1179 06fe 6330      		cpi r22,lo8(3)
 1180 0700 01F0      		breq .L74
 1181 0702 6130      		cpi r22,lo8(1)
 1182 0704 01F0      		breq .L75
 1183 0706 80E0      		ldi r24,lo8(-256)
 1184 0708 9FEF      		ldi r25,hi8(-256)
 1185 070a AFEF      		ldi r26,hlo8(-256)
 1186 070c BFEF      		ldi r27,hhi8(-256)
 1187 070e 00C0      		rjmp .L76
 1188               	.L75:
 1189 0710 80E0      		ldi r24,lo8(16776960)
 1190 0712 9FEF      		ldi r25,hi8(16776960)
 1191 0714 AFEF      		ldi r26,hlo8(16776960)
 1192 0716 B0E0      		ldi r27,hhi8(16776960)
 1193               	.L76:
 1194 0718 822B      		or r24,r18
 1195 071a 932B      		or r25,r19
 1196 071c A42B      		or r26,r20
 1197 071e B52B      		or r27,r21
 1198 0720 8983      		std Y+1,r24
 1199 0722 9A83      		std Y+2,r25
 1200 0724 AB83      		std Y+3,r26
 1201 0726 BC83      		std Y+4,r27
 1202 0728 F401      		movw r30,r8
 1203 072a 82AB      		std Z+50,r24
 1204 072c 93AB      		std Z+51,r25
 1205 072e A4AB      		std Z+52,r26
 1206 0730 B5AB      		std Z+53,r27
 1207 0732 00C0      		rjmp .L77
 1208               	.L74:
 1209 0734 DA01      		movw r26,r20
 1210 0736 C901      		movw r24,r18
 1211 0738 9F6F      		ori r25,hi8(268435200)
 1212 073a AF6F      		ori r26,hlo8(268435200)
 1213 073c BF60      		ori r27,hhi8(268435200)
 1214 073e 8983      		std Y+1,r24
 1215 0740 9A83      		std Y+2,r25
 1216 0742 AB83      		std Y+3,r26
 1217 0744 BC83      		std Y+4,r27
 1218 0746 F401      		movw r30,r8
 1219 0748 82AB      		std Z+50,r24
 1220 074a 93AB      		std Z+51,r25
 1221 074c A4AB      		std Z+52,r26
 1222 074e B5AB      		std Z+53,r27
 1223 0750 8FEF      		ldi r24,lo8(268435455)
 1224 0752 9FEF      		ldi r25,hi8(268435455)
 1225 0754 AFEF      		ldi r26,hlo8(268435455)
 1226 0756 BFE0      		ldi r27,hhi8(268435455)
 1227 0758 F701      		movw r30,r14
 1228 075a 8483      		std Z+4,r24
 1229 075c 9583      		std Z+5,r25
 1230 075e A683      		std Z+6,r26
 1231 0760 B783      		std Z+7,r27
 1232 0762 8087      		std Z+8,r24
 1233 0764 9187      		std Z+9,r25
 1234 0766 A287      		std Z+10,r26
 1235 0768 B387      		std Z+11,r27
 1236               	.L77:
 1237 076a 8CA1      		ldd r24,Y+36
 1238 076c B701      		movw r22,r14
 1239 076e 2D89      		ldd r18,Y+21
 1240 0770 3E89      		ldd r19,Y+22
 1241 0772 4F89      		ldd r20,Y+23
 1242 0774 588D      		ldd r21,Y+24
 1243 0776 01E0      		ldi r16,lo8(1)
 1244 0778 0E94 0000 		call disk_write
 1245 077c 8823      		tst r24
 1246 077e 01F0      		breq .+2
 1247 0780 00C0      		rjmp .L32
 1248 0782 F701      		movw r30,r14
 1249 0784 80E0      		ldi r24,lo8(512)
 1250 0786 92E0      		ldi r25,hi8(512)
 1251 0788 00C0      		rjmp .L78
 1252               	.L79:
 1253 078a 1192      		st Z+,__zero_reg__
 1254               	.L78:
 1255 078c 0197      		sbiw r24,1
 1256 078e 2FEF      		ldi r18,hi8(-1)
 1257 0790 8F3F      		cpi r24,lo8(-1)
 1258 0792 9207      		cpc r25,r18
 1259 0794 01F4      		brne .L79
 1260 0796 AD88      		ldd r10,Y+21
 1261 0798 BE88      		ldd r11,Y+22
 1262 079a CF88      		ldd r12,Y+23
 1263 079c D88C      		ldd r13,Y+24
 1264 079e 0894      		sec
 1265 07a0 A11C      		adc r10,__zero_reg__
 1266 07a2 B11C      		adc r11,__zero_reg__
 1267 07a4 C11C      		adc r12,__zero_reg__
 1268 07a6 D11C      		adc r13,__zero_reg__
 1269 07a8 81E0      		ldi r24,lo8(1)
 1270 07aa 90E0      		ldi r25,hi8(1)
 1271 07ac A0E0      		ldi r26,hlo8(1)
 1272 07ae B0E0      		ldi r27,hhi8(1)
 1273 07b0 00C0      		rjmp .L92
 1274               	.L81:
 1275 07b2 8CA1      		ldd r24,Y+36
 1276 07b4 B701      		movw r22,r14
 1277 07b6 A601      		movw r20,r12
 1278 07b8 9501      		movw r18,r10
 1279 07ba 01E0      		ldi r16,lo8(1)
 1280 07bc 0E94 0000 		call disk_write
 1281 07c0 8823      		tst r24
 1282 07c2 01F0      		breq .+2
 1283 07c4 00C0      		rjmp .L32
 1284 07c6 0894      		sec
 1285 07c8 A11C      		adc r10,__zero_reg__
 1286 07ca B11C      		adc r11,__zero_reg__
 1287 07cc C11C      		adc r12,__zero_reg__
 1288 07ce D11C      		adc r13,__zero_reg__
 1289 07d0 8981      		ldd r24,Y+1
 1290 07d2 9A81      		ldd r25,Y+2
 1291 07d4 AB81      		ldd r26,Y+3
 1292 07d6 BC81      		ldd r27,Y+4
 1293 07d8 0196      		adiw r24,1
 1294 07da A11D      		adc r26,__zero_reg__
 1295 07dc B11D      		adc r27,__zero_reg__
 1296               	.L92:
 1297 07de 8983      		std Y+1,r24
 1298 07e0 9A83      		std Y+2,r25
 1299 07e2 AB83      		std Y+3,r26
 1300 07e4 BC83      		std Y+4,r27
 1301 07e6 8981      		ldd r24,Y+1
 1302 07e8 9A81      		ldd r25,Y+2
 1303 07ea AB81      		ldd r26,Y+3
 1304 07ec BC81      		ldd r27,Y+4
 1305 07ee 2D85      		ldd r18,Y+13
 1306 07f0 3E85      		ldd r19,Y+14
 1307 07f2 4F85      		ldd r20,Y+15
 1308 07f4 5889      		ldd r21,Y+16
 1309 07f6 8217      		cp r24,r18
 1310 07f8 9307      		cpc r25,r19
 1311 07fa A407      		cpc r26,r20
 1312 07fc B507      		cpc r27,r21
 1313 07fe 00F0      		brlo .L81
 1314 0800 3D8D      		ldd r19,Y+29
 1315 0802 3330      		cpi r19,lo8(3)
 1316 0804 01F4      		brne .L82
 1317 0806 C101      		movw r24,r2
 1318 0808 A0E0      		ldi r26,lo8(0)
 1319 080a B0E0      		ldi r27,hi8(0)
 1320 080c 8987      		std Y+9,r24
 1321 080e 9A87      		std Y+10,r25
 1322 0810 AB87      		std Y+11,r26
 1323 0812 BC87      		std Y+12,r27
 1324               	.L82:
 1325 0814 2985      		ldd r18,Y+9
 1326 0816 3A85      		ldd r19,Y+10
 1327 0818 4B85      		ldd r20,Y+11
 1328 081a 5C85      		ldd r21,Y+12
 1329 081c 2983      		std Y+1,r18
 1330 081e 3A83      		std Y+2,r19
 1331 0820 4B83      		std Y+3,r20
 1332 0822 5C83      		std Y+4,r21
 1333 0824 00C0      		rjmp .L83
 1334               	.L84:
 1335 0826 8CA1      		ldd r24,Y+36
 1336 0828 B701      		movw r22,r14
 1337 082a A601      		movw r20,r12
 1338 082c 9501      		movw r18,r10
 1339 082e 01E0      		ldi r16,lo8(1)
 1340 0830 0E94 0000 		call disk_write
 1341 0834 8823      		tst r24
 1342 0836 01F0      		breq .+2
 1343 0838 00C0      		rjmp .L32
 1344 083a 0894      		sec
 1345 083c A11C      		adc r10,__zero_reg__
 1346 083e B11C      		adc r11,__zero_reg__
 1347 0840 C11C      		adc r12,__zero_reg__
 1348 0842 D11C      		adc r13,__zero_reg__
 1349               	.L83:
 1350 0844 8981      		ldd r24,Y+1
 1351 0846 9A81      		ldd r25,Y+2
 1352 0848 AB81      		ldd r26,Y+3
 1353 084a BC81      		ldd r27,Y+4
 1354 084c 0197      		sbiw r24,1
 1355 084e A109      		sbc r26,__zero_reg__
 1356 0850 B109      		sbc r27,__zero_reg__
 1357 0852 8983      		std Y+1,r24
 1358 0854 9A83      		std Y+2,r25
 1359 0856 AB83      		std Y+3,r26
 1360 0858 BC83      		std Y+4,r27
 1361 085a 0196      		adiw r24,1
 1362 085c A11D      		adc r26,__zero_reg__
 1363 085e B11D      		adc r27,__zero_reg__
 1364 0860 0097      		sbiw r24,0
 1365 0862 A105      		cpc r26,__zero_reg__
 1366 0864 B105      		cpc r27,__zero_reg__
 1367 0866 01F4      		brne .L84
 1368 0868 3D8D      		ldd r19,Y+29
 1369 086a 3330      		cpi r19,lo8(3)
 1370 086c 01F0      		breq .+2
 1371 086e 00C0      		rjmp .L85
 1372 0870 85E5      		ldi r24,lo8(-21931)
 1373 0872 9AEA      		ldi r25,hi8(-21931)
 1374 0874 AE8D      		ldd r26,Y+30
 1375 0876 BF8D      		ldd r27,Y+31
 1376 0878 8D93      		st X+,r24
 1377 087a 9C93      		st X,r25
 1378 087c 82E5      		ldi r24,lo8(1096897106)
 1379 087e 92E5      		ldi r25,hi8(1096897106)
 1380 0880 A1E6      		ldi r26,hlo8(1096897106)
 1381 0882 B1E4      		ldi r27,hhi8(1096897106)
 1382 0884 F401      		movw r30,r8
 1383 0886 82AB      		std Z+50,r24
 1384 0888 93AB      		std Z+51,r25
 1385 088a A4AB      		std Z+52,r26
 1386 088c B5AB      		std Z+53,r27
 1387 088e 24EE      		ldi r18,lo8(484)
 1388 0890 31E0      		ldi r19,hi8(484)
 1389 0892 E20E      		add r14,r18
 1390 0894 F31E      		adc r15,r19
 1391 0896 82E7      		ldi r24,lo8(1631679090)
 1392 0898 92E7      		ldi r25,hi8(1631679090)
 1393 089a A1E4      		ldi r26,hlo8(1631679090)
 1394 089c B1E6      		ldi r27,hhi8(1631679090)
 1395 089e F701      		movw r30,r14
 1396 08a0 8193      		st Z+,r24
 1397 08a2 9193      		st Z+,r25
 1398 08a4 A193      		st Z+,r26
 1399 08a6 B193      		st Z+,r27
 1400 08a8 0894      		sec
 1401 08aa 4108      		sbc r4,__zero_reg__
 1402 08ac 5108      		sbc r5,__zero_reg__
 1403 08ae 6108      		sbc r6,__zero_reg__
 1404 08b0 7108      		sbc r7,__zero_reg__
 1405 08b2 DF01      		movw r26,r30
 1406 08b4 4D92      		st X+,r4
 1407 08b6 5D92      		st X+,r5
 1408 08b8 6D92      		st X+,r6
 1409 08ba 7D92      		st X+,r7
 1410 08bc 7D01      		movw r14,r26
 1411 08be 8FEF      		ldi r24,lo8(-1)
 1412 08c0 9FEF      		ldi r25,hi8(-1)
 1413 08c2 AFEF      		ldi r26,hlo8(-1)
 1414 08c4 BFEF      		ldi r27,hhi8(-1)
 1415 08c6 F701      		movw r30,r14
 1416 08c8 8083      		st Z,r24
 1417 08ca 9183      		std Z+1,r25
 1418 08cc A283      		std Z+2,r26
 1419 08ce B383      		std Z+3,r27
 1420 08d0 24E1      		ldi r18,lo8(-492)
 1421 08d2 3EEF      		ldi r19,hi8(-492)
 1422 08d4 E20E      		add r14,r18
 1423 08d6 F31E      		adc r15,r19
 1424 08d8 898D      		ldd r24,Y+25
 1425 08da 9A8D      		ldd r25,Y+26
 1426 08dc AB8D      		ldd r26,Y+27
 1427 08de BC8D      		ldd r27,Y+28
 1428 08e0 0196      		adiw r24,1
 1429 08e2 A11D      		adc r26,__zero_reg__
 1430 08e4 B11D      		adc r27,__zero_reg__
 1431 08e6 898F      		std Y+25,r24
 1432 08e8 9A8F      		std Y+26,r25
 1433 08ea AB8F      		std Y+27,r26
 1434 08ec BC8F      		std Y+28,r27
 1435 08ee 8CA1      		ldd r24,Y+36
 1436 08f0 B701      		movw r22,r14
 1437 08f2 298D      		ldd r18,Y+25
 1438 08f4 3A8D      		ldd r19,Y+26
 1439 08f6 4B8D      		ldd r20,Y+27
 1440 08f8 5C8D      		ldd r21,Y+28
 1441 08fa 01E0      		ldi r16,lo8(1)
 1442 08fc 0E94 0000 		call disk_write
 1443 0900 298D      		ldd r18,Y+25
 1444 0902 3A8D      		ldd r19,Y+26
 1445 0904 4B8D      		ldd r20,Y+27
 1446 0906 5C8D      		ldd r21,Y+28
 1447 0908 2A5F      		subi r18,lo8(-(6))
 1448 090a 3F4F      		sbci r19,hi8(-(6))
 1449 090c 4F4F      		sbci r20,hlo8(-(6))
 1450 090e 5F4F      		sbci r21,hhi8(-(6))
 1451 0910 8CA1      		ldd r24,Y+36
 1452 0912 B701      		movw r22,r14
 1453 0914 0E94 0000 		call disk_write
 1454               	.L85:
 1455 0918 8CA1      		ldd r24,Y+36
 1456 091a 60E0      		ldi r22,lo8(0)
 1457 091c 40E0      		ldi r20,lo8(0)
 1458 091e 50E0      		ldi r21,hi8(0)
 1459 0920 0E94 0000 		call disk_ioctl
 1460 0924 8823      		tst r24
 1461 0926 01F0      		breq .L28
 1462               	.L32:
 1463 0928 81E0      		ldi r24,lo8(1)
 1464 092a 00C0      		rjmp .L28
 1465               	.L44:
 1466 092c 8EE0      		ldi r24,lo8(14)
 1467               	.L28:
 1468               	/* epilogue start */
 1469 092e A596      		adiw r28,37
 1470 0930 0FB6      		in __tmp_reg__,__SREG__
 1471 0932 F894      		cli
 1472 0934 DEBF      		out __SP_H__,r29
 1473 0936 0FBE      		out __SREG__,__tmp_reg__
 1474 0938 CDBF      		out __SP_L__,r28
 1475 093a CF91      		pop r28
 1476 093c DF91      		pop r29
 1477 093e 1F91      		pop r17
 1478 0940 0F91      		pop r16
 1479 0942 FF90      		pop r15
 1480 0944 EF90      		pop r14
 1481 0946 DF90      		pop r13
 1482 0948 CF90      		pop r12
 1483 094a BF90      		pop r11
 1484 094c AF90      		pop r10
 1485 094e 9F90      		pop r9
 1486 0950 8F90      		pop r8
 1487 0952 7F90      		pop r7
 1488 0954 6F90      		pop r6
 1489 0956 5F90      		pop r5
 1490 0958 4F90      		pop r4
 1491 095a 3F90      		pop r3
 1492 095c 2F90      		pop r2
 1493 095e 0895      		ret
 1494               	.L42:
 1495 0960 9C01      		movw r18,r24
 1496 0962 AD01      		movw r20,r26
 1497 0964 E2E0      		ldi r30,2
 1498 0966 220F      	1:	lsl r18
 1499 0968 331F      		rol r19
 1500 096a 441F      		rol r20
 1501 096c 551F      		rol r21
 1502 096e EA95      		dec r30
 1503 0970 01F4      		brne 1b
 1504 0972 295F      		subi r18,lo8(-(519))
 1505 0974 3D4F      		sbci r19,hi8(-(519))
 1506 0976 4F4F      		sbci r20,hlo8(-(519))
 1507 0978 5F4F      		sbci r21,hhi8(-(519))
 1508 097a 79E0      		ldi r23,9
 1509 097c 5695      	1:	lsr r21
 1510 097e 4795      		ror r20
 1511 0980 3795      		ror r19
 1512 0982 2795      		ror r18
 1513 0984 7A95      		dec r23
 1514 0986 01F4      		brne 1b
 1515 0988 2D87      		std Y+13,r18
 1516 098a 3E87      		std Y+14,r19
 1517 098c 4F87      		std Y+15,r20
 1518 098e 588B      		std Y+16,r21
 1519 0990 80E2      		ldi r24,lo8(32)
 1520 0992 90E0      		ldi r25,hi8(32)
 1521 0994 A0E0      		ldi r26,hlo8(32)
 1522 0996 B0E0      		ldi r27,hhi8(32)
 1523 0998 898B      		std Y+17,r24
 1524 099a 9A8B      		std Y+18,r25
 1525 099c AB8B      		std Y+19,r26
 1526 099e BC8B      		std Y+20,r27
 1527 09a0 1986      		std Y+9,__zero_reg__
 1528 09a2 1A86      		std Y+10,__zero_reg__
 1529 09a4 1B86      		std Y+11,__zero_reg__
 1530 09a6 1C86      		std Y+12,__zero_reg__
 1531 09a8 93E0      		ldi r25,lo8(3)
 1532 09aa 9D8F      		std Y+29,r25
 1533 09ac 00C0      		rjmp .L87
 1534               	.L93:
 1535 09ae 9C01      		movw r18,r24
 1536 09b0 AD01      		movw r20,r26
 1537 09b2 2E5F      		subi r18,lo8(-(2))
 1538 09b4 3F4F      		sbci r19,hi8(-(2))
 1539 09b6 4F4F      		sbci r20,hlo8(-(2))
 1540 09b8 5F4F      		sbci r21,hhi8(-(2))
 1541 09ba 220F      		lsl r18
 1542 09bc 331F      		rol r19
 1543 09be 441F      		rol r20
 1544 09c0 551F      		rol r21
 1545 09c2 A2E0      		ldi r26,lo8(2)
 1546 09c4 AD8F      		std Y+29,r26
 1547 09c6 00C0      		rjmp .L88
 1549               		.section	.text.validate,"ax",@progbits
 1551               	validate:
 1552               	/* prologue: function */
 1553               	/* frame size = 0 */
 1554 0000 FC01      		movw r30,r24
 1555 0002 0097      		sbiw r24,0
 1556 0004 01F0      		breq .L95
 1557 0006 8081      		ld r24,Z
 1558 0008 8823      		tst r24
 1559 000a 01F0      		breq .L95
 1560 000c 8681      		ldd r24,Z+6
 1561 000e 9781      		ldd r25,Z+7
 1562 0010 8617      		cp r24,r22
 1563 0012 9707      		cpc r25,r23
 1564 0014 01F4      		brne .L95
 1565 0016 8181      		ldd r24,Z+1
 1566 0018 0E94 0000 		call disk_status
 1567 001c 80FD      		sbrc r24,0
 1568 001e 00C0      		rjmp .L96
 1569 0020 80E0      		ldi r24,lo8(0)
 1570 0022 0895      		ret
 1571               	.L96:
 1572 0024 83E0      		ldi r24,lo8(3)
 1573 0026 0895      		ret
 1574               	.L95:
 1575 0028 89E0      		ldi r24,lo8(9)
 1576 002a 0895      		ret
 1578               		.section	.text.chk_mounted,"ax",@progbits
 1580               	chk_mounted:
 1581 0000 2F92      		push r2
 1582 0002 3F92      		push r3
 1583 0004 4F92      		push r4
 1584 0006 5F92      		push r5
 1585 0008 6F92      		push r6
 1586 000a 7F92      		push r7
 1587 000c 8F92      		push r8
 1588 000e 9F92      		push r9
 1589 0010 AF92      		push r10
 1590 0012 BF92      		push r11
 1591 0014 CF92      		push r12
 1592 0016 DF92      		push r13
 1593 0018 EF92      		push r14
 1594 001a FF92      		push r15
 1595 001c 0F93      		push r16
 1596 001e 1F93      		push r17
 1597 0020 DF93      		push r29
 1598 0022 CF93      		push r28
 1599 0024 CDB7      		in r28,__SP_L__
 1600 0026 DEB7      		in r29,__SP_H__
 1601 0028 2C97      		sbiw r28,12
 1602 002a 0FB6      		in __tmp_reg__,__SREG__
 1603 002c F894      		cli
 1604 002e DEBF      		out __SP_H__,r29
 1605 0030 0FBE      		out __SREG__,__tmp_reg__
 1606 0032 CDBF      		out __SP_L__,r28
 1607               	/* prologue: function */
 1608               	/* frame size = 12 */
 1609 0034 FC01      		movw r30,r24
 1610 0036 9B01      		movw r18,r22
 1611 0038 F42E      		mov r15,r20
 1612 003a A081      		ld r26,Z
 1613 003c B181      		ldd r27,Z+1
 1614 003e 8C91      		ld r24,X
 1615 0040 082F      		mov r16,r24
 1616 0042 10E0      		ldi r17,lo8(0)
 1617 0044 0053      		subi r16,lo8(-(-48))
 1618 0046 1040      		sbci r17,hi8(-(-48))
 1619 0048 0A30      		cpi r16,10
 1620 004a 1105      		cpc r17,__zero_reg__
 1621 004c 00F4      		brsh .L100
 1622 004e 1196      		adiw r26,1
 1623 0050 8C91      		ld r24,X
 1624 0052 1197      		sbiw r26,1
 1625 0054 8A33      		cpi r24,lo8(58)
 1626 0056 01F4      		brne .L100
 1627 0058 1296      		adiw r26,2
 1628 005a B183      		std Z+1,r27
 1629 005c A083      		st Z,r26
 1630 005e 00C0      		rjmp .L101
 1631               	.L100:
 1632 0060 8091 0000 		lds r24,Drive
 1633 0064 082F      		mov r16,r24
 1634 0066 10E0      		ldi r17,lo8(0)
 1635               	.L101:
 1636 0068 0230      		cpi r16,2
 1637 006a 1105      		cpc r17,__zero_reg__
 1638 006c 00F0      		brlo .L102
 1639 006e 8BE0      		ldi r24,lo8(11)
 1640 0070 00C0      		rjmp .L103
 1641               	.L102:
 1642 0072 F801      		movw r30,r16
 1643 0074 EE0F      		lsl r30
 1644 0076 FF1F      		rol r31
 1645 0078 E050      		subi r30,lo8(-(FatFs))
 1646 007a F040      		sbci r31,hi8(-(FatFs))
 1647 007c 4081      		ld r20,Z
 1648 007e 5181      		ldd r21,Z+1
 1649 0080 5C87      		std Y+12,r21
 1650 0082 4B87      		std Y+11,r20
 1651 0084 D901      		movw r26,r18
 1652 0086 4D93      		st X+,r20
 1653 0088 5C93      		st X,r21
 1654 008a 452B      		or r20,r21
 1655 008c 01F4      		brne .L104
 1656 008e 8CE0      		ldi r24,lo8(12)
 1657 0090 00C0      		rjmp .L103
 1658               	.L104:
 1659 0092 EB85      		ldd r30,Y+11
 1660 0094 FC85      		ldd r31,Y+12
 1661 0096 8081      		ld r24,Z
 1662 0098 8823      		tst r24
 1663 009a 01F0      		breq .L105
 1664 009c 8181      		ldd r24,Z+1
 1665 009e 0E94 0000 		call disk_status
 1666 00a2 80FD      		sbrc r24,0
 1667 00a4 00C0      		rjmp .L105
 1668 00a6 FF20      		tst r15
 1669 00a8 01F4      		brne .+2
 1670 00aa 00C0      		rjmp .L106
 1671 00ac 82FD      		sbrc r24,2
 1672 00ae 00C0      		rjmp .L107
 1673 00b0 00C0      		rjmp .L106
 1674               	.L105:
 1675 00b2 AB85      		ldd r26,Y+11
 1676 00b4 BC85      		ldd r27,Y+12
 1677 00b6 1C92      		st X,__zero_reg__
 1678 00b8 1196      		adiw r26,1
 1679 00ba 0C93      		st X,r16
 1680 00bc 802F      		mov r24,r16
 1681 00be 0E94 0000 		call disk_initialize
 1682 00c2 80FF      		sbrs r24,0
 1683 00c4 00C0      		rjmp .L108
 1684 00c6 83E0      		ldi r24,lo8(3)
 1685 00c8 00C0      		rjmp .L103
 1686               	.L108:
 1687 00ca FF20      		tst r15
 1688 00cc 01F0      		breq .L109
 1689 00ce 82FD      		sbrc r24,2
 1690 00d0 00C0      		rjmp .L107
 1691               	.L109:
 1692 00d2 EB85      		ldd r30,Y+11
 1693 00d4 FC85      		ldd r31,Y+12
 1694 00d6 F296      		adiw r30,50
 1695 00d8 FE83      		std Y+6,r31
 1696 00da ED83      		std Y+5,r30
 1697 00dc AB85      		ldd r26,Y+11
 1698 00de BC85      		ldd r27,Y+12
 1699 00e0 1196      		adiw r26,1
 1700 00e2 8C91      		ld r24,X
 1701 00e4 BF01      		movw r22,r30
 1702 00e6 20E0      		ldi r18,lo8(0)
 1703 00e8 30E0      		ldi r19,hi8(0)
 1704 00ea 40E0      		ldi r20,hlo8(0)
 1705 00ec 50E0      		ldi r21,hhi8(0)
 1706 00ee 01E0      		ldi r16,lo8(1)
 1707 00f0 0E94 0000 		call disk_read
 1708 00f4 8823      		tst r24
 1709 00f6 01F0      		breq .+2
 1710 00f8 00C0      		rjmp .L110
 1711 00fa 00E3      		ldi r16,lo8(560)
 1712 00fc 202E      		mov r2,r16
 1713 00fe 02E0      		ldi r16,hi8(560)
 1714 0100 302E      		mov r3,r16
 1715 0102 EB85      		ldd r30,Y+11
 1716 0104 FC85      		ldd r31,Y+12
 1717 0106 2E0E      		add r2,r30
 1718 0108 3F1E      		adc r3,r31
 1719 010a D101      		movw r26,r2
 1720 010c 8D91      		ld r24,X+
 1721 010e 9C91      		ld r25,X
 1722 0110 8555      		subi r24,lo8(-21931)
 1723 0112 9A4A      		sbci r25,hi8(-21931)
 1724 0114 01F0      		breq .L111
 1725 0116 82E0      		ldi r24,lo8(2)
 1726 0118 00C0      		rjmp .L112
 1727               	.L111:
 1728 011a 18E6      		ldi r17,lo8(104)
 1729 011c C12E      		mov r12,r17
 1730 011e D12C      		mov r13,__zero_reg__
 1731 0120 EB85      		ldd r30,Y+11
 1732 0122 FC85      		ldd r31,Y+12
 1733 0124 CE0E      		add r12,r30
 1734 0126 DF1E      		adc r13,r31
 1735 0128 F601      		movw r30,r12
 1736 012a 8081      		ld r24,Z
 1737 012c 9181      		ldd r25,Z+1
 1738 012e A281      		ldd r26,Z+2
 1739 0130 B381      		ldd r27,Z+3
 1740 0132 B070      		andi r27,hhi8(16777215)
 1741 0134 8654      		subi r24,lo8(5521734)
 1742 0136 9144      		sbci r25,hi8(5521734)
 1743 0138 A445      		sbci r26,hlo8(5521734)
 1744 013a B040      		sbci r27,hhi8(5521734)
 1745 013c 01F4      		brne .+2
 1746 013e 00C0      		rjmp .L113
 1747 0140 B4E8      		ldi r27,lo8(132)
 1748 0142 EB2E      		mov r14,r27
 1749 0144 F12C      		mov r15,__zero_reg__
 1750 0146 2B85      		ldd r18,Y+11
 1751 0148 3C85      		ldd r19,Y+12
 1752 014a E20E      		add r14,r18
 1753 014c F31E      		adc r15,r19
 1754 014e F701      		movw r30,r14
 1755 0150 8081      		ld r24,Z
 1756 0152 9181      		ldd r25,Z+1
 1757 0154 A281      		ldd r26,Z+2
 1758 0156 B381      		ldd r27,Z+3
 1759 0158 B070      		andi r27,hhi8(16777215)
 1760 015a 8654      		subi r24,lo8(5521734)
 1761 015c 9144      		sbci r25,hi8(5521734)
 1762 015e A445      		sbci r26,hlo8(5521734)
 1763 0160 B040      		sbci r27,hhi8(5521734)
 1764 0162 01F0      		breq .+2
 1765 0164 00C0      		rjmp .L131
 1766 0166 00C0      		rjmp .L113
 1767               	.L132:
 1768 0168 D901      		movw r26,r18
 1769 016a 1896      		adiw r26,8
 1770 016c 8D91      		ld r24,X+
 1771 016e 9D91      		ld r25,X+
 1772 0170 0D90      		ld __tmp_reg__,X+
 1773 0172 BC91      		ld r27,X
 1774 0174 A02D      		mov r26,__tmp_reg__
 1775 0176 8F83      		std Y+7,r24
 1776 0178 9887      		std Y+8,r25
 1777 017a A987      		std Y+9,r26
 1778 017c BA87      		std Y+10,r27
 1779 017e EB85      		ldd r30,Y+11
 1780 0180 FC85      		ldd r31,Y+12
 1781 0182 8181      		ldd r24,Z+1
 1782 0184 6D81      		ldd r22,Y+5
 1783 0186 7E81      		ldd r23,Y+6
 1784 0188 2F81      		ldd r18,Y+7
 1785 018a 3885      		ldd r19,Y+8
 1786 018c 4985      		ldd r20,Y+9
 1787 018e 5A85      		ldd r21,Y+10
 1788 0190 01E0      		ldi r16,lo8(1)
 1789 0192 0E94 0000 		call disk_read
 1790 0196 8823      		tst r24
 1791 0198 01F0      		breq .+2
 1792 019a 00C0      		rjmp .L110
 1793 019c D101      		movw r26,r2
 1794 019e 8D91      		ld r24,X+
 1795 01a0 9C91      		ld r25,X
 1796 01a2 8555      		subi r24,lo8(-21931)
 1797 01a4 9A4A      		sbci r25,hi8(-21931)
 1798 01a6 01F0      		breq .+2
 1799 01a8 00C0      		rjmp .L118
 1800 01aa F601      		movw r30,r12
 1801 01ac 8081      		ld r24,Z
 1802 01ae 9181      		ldd r25,Z+1
 1803 01b0 A281      		ldd r26,Z+2
 1804 01b2 B381      		ldd r27,Z+3
 1805 01b4 B070      		andi r27,hhi8(16777215)
 1806 01b6 8654      		subi r24,lo8(5521734)
 1807 01b8 9144      		sbci r25,hi8(5521734)
 1808 01ba A445      		sbci r26,hlo8(5521734)
 1809 01bc B040      		sbci r27,hhi8(5521734)
 1810 01be 01F0      		breq .L130
 1811 01c0 F701      		movw r30,r14
 1812 01c2 8081      		ld r24,Z
 1813 01c4 9181      		ldd r25,Z+1
 1814 01c6 A281      		ldd r26,Z+2
 1815 01c8 B381      		ldd r27,Z+3
 1816 01ca B070      		andi r27,hhi8(16777215)
 1817 01cc 8654      		subi r24,lo8(5521734)
 1818 01ce 9144      		sbci r25,hi8(5521734)
 1819 01d0 A445      		sbci r26,hlo8(5521734)
 1820 01d2 B040      		sbci r27,hhi8(5521734)
 1821 01d4 01F0      		breq .+2
 1822 01d6 00C0      		rjmp .L118
 1823               	.L130:
 1824 01d8 AB85      		ldd r26,Y+11
 1825 01da BC85      		ldd r27,Y+12
 1826 01dc DD96      		adiw r26,61
 1827 01de 8D91      		ld r24,X+
 1828 01e0 9C91      		ld r25,X
 1829 01e2 DE97      		sbiw r26,61+1
 1830 01e4 8050      		subi r24,lo8(512)
 1831 01e6 9240      		sbci r25,hi8(512)
 1832 01e8 01F0      		breq .+2
 1833 01ea 00C0      		rjmp .L118
 1834 01ec EB85      		ldd r30,Y+11
 1835 01ee FC85      		ldd r31,Y+12
 1836 01f0 E85B      		subi r30,lo8(-(72))
 1837 01f2 FF4F      		sbci r31,hi8(-(72))
 1838 01f4 8081      		ld r24,Z
 1839 01f6 9181      		ldd r25,Z+1
 1840 01f8 E854      		subi r30,lo8(-(-72))
 1841 01fa F040      		sbci r31,hi8(-(-72))
 1842 01fc FC87      		std Y+12,r31
 1843 01fe EB87      		std Y+11,r30
 1844 0200 5C01      		movw r10,r24
 1845 0202 CC24      		clr r12
 1846 0204 DD24      		clr r13
 1847 0206 A114      		cp r10,__zero_reg__
 1848 0208 B104      		cpc r11,__zero_reg__
 1849 020a C104      		cpc r12,__zero_reg__
 1850 020c D104      		cpc r13,__zero_reg__
 1851 020e 01F4      		brne .L119
 1852 0210 EA5A      		subi r30,lo8(-(86))
 1853 0212 FF4F      		sbci r31,hi8(-(86))
 1854 0214 A080      		ld r10,Z
 1855 0216 B180      		ldd r11,Z+1
 1856 0218 C280      		ldd r12,Z+2
 1857 021a D380      		ldd r13,Z+3
 1858 021c E655      		subi r30,lo8(-(-86))
 1859 021e F040      		sbci r31,hi8(-(-86))
 1860 0220 FC87      		std Y+12,r31
 1861 0222 EB87      		std Y+11,r30
 1862               	.L119:
 1863 0224 AB85      		ldd r26,Y+11
 1864 0226 BC85      		ldd r27,Y+12
 1865 0228 5E96      		adiw r26,30
 1866 022a AD92      		st X+,r10
 1867 022c BD92      		st X+,r11
 1868 022e CD92      		st X+,r12
 1869 0230 DC92      		st X,r13
 1870 0232 9197      		sbiw r26,30+3
 1871 0234 AE5B      		subi r26,lo8(-(66))
 1872 0236 BF4F      		sbci r27,hi8(-(66))
 1873 0238 4C91      		ld r20,X
 1874 023a A254      		subi r26,lo8(-(-66))
 1875 023c B040      		sbci r27,hi8(-(-66))
 1876 023e BC87      		std Y+12,r27
 1877 0240 AB87      		std Y+11,r26
 1878 0242 1396      		adiw r26,3
 1879 0244 4C93      		st X,r20
 1880 0246 1397      		sbiw r26,3
 1881 0248 842F      		mov r24,r20
 1882 024a 8150      		subi r24,lo8(-(-1))
 1883 024c 8230      		cpi r24,lo8(2)
 1884 024e 00F0      		brlo .+2
 1885 0250 00C0      		rjmp .L118
 1886 0252 DF96      		adiw r26,63
 1887 0254 2C91      		ld r18,X
 1888 0256 DF97      		sbiw r26,63
 1889 0258 1296      		adiw r26,2
 1890 025a 2C93      		st X,r18
 1891 025c 1297      		sbiw r26,2
 1892 025e 2223      		tst r18
 1893 0260 01F4      		brne .+2
 1894 0262 00C0      		rjmp .L118
 1895 0264 30E0      		ldi r19,lo8(0)
 1896 0266 C901      		movw r24,r18
 1897 0268 0197      		sbiw r24,1
 1898 026a 8223      		and r24,r18
 1899 026c 9323      		and r25,r19
 1900 026e 892B      		or r24,r25
 1901 0270 01F0      		breq .+2
 1902 0272 00C0      		rjmp .L118
 1903 0274 AD5B      		subi r26,lo8(-(67))
 1904 0276 BF4F      		sbci r27,hi8(-(67))
 1905 0278 8D90      		ld r8,X+
 1906 027a 9C90      		ld r9,X
 1907 027c 1197      		sbiw r26,1
 1908 027e A354      		subi r26,lo8(-(-67))
 1909 0280 B040      		sbci r27,hi8(-(-67))
 1910 0282 BC87      		std Y+12,r27
 1911 0284 AB87      		std Y+11,r26
 1912 0286 1996      		adiw r26,8+1
 1913 0288 9C92      		st X,r9
 1914 028a 8E92      		st -X,r8
 1915 028c 1897      		sbiw r26,8
 1916 028e C401      		movw r24,r8
 1917 0290 8F70      		andi r24,lo8(15)
 1918 0292 9070      		andi r25,hi8(15)
 1919 0294 892B      		or r24,r25
 1920 0296 01F0      		breq .+2
 1921 0298 00C0      		rjmp .L118
 1922 029a AB5B      		subi r26,lo8(-(69))
 1923 029c BF4F      		sbci r27,hi8(-(69))
 1924 029e 8D91      		ld r24,X+
 1925 02a0 9C91      		ld r25,X
 1926 02a2 1197      		sbiw r26,1
 1927 02a4 A554      		subi r26,lo8(-(-69))
 1928 02a6 B040      		sbci r27,hi8(-(-69))
 1929 02a8 BC87      		std Y+12,r27
 1930 02aa AB87      		std Y+11,r26
 1931 02ac 7C01      		movw r14,r24
 1932 02ae 00E0      		ldi r16,lo8(0)
 1933 02b0 10E0      		ldi r17,hi8(0)
 1934 02b2 E114      		cp r14,__zero_reg__
 1935 02b4 F104      		cpc r15,__zero_reg__
 1936 02b6 0105      		cpc r16,__zero_reg__
 1937 02b8 1105      		cpc r17,__zero_reg__
 1938 02ba 01F4      		brne .L120
 1939 02bc AE5A      		subi r26,lo8(-(82))
 1940 02be BF4F      		sbci r27,hi8(-(82))
 1941 02c0 ED90      		ld r14,X+
 1942 02c2 FD90      		ld r15,X+
 1943 02c4 0D91      		ld r16,X+
 1944 02c6 1C91      		ld r17,X
 1945 02c8 1397      		sbiw r26,3
 1946 02ca A255      		subi r26,lo8(-(-82))
 1947 02cc B040      		sbci r27,hi8(-(-82))
 1948 02ce BC87      		std Y+12,r27
 1949 02d0 AB87      		std Y+11,r26
 1950               	.L120:
 1951 02d2 EB85      		ldd r30,Y+11
 1952 02d4 FC85      		ldd r31,Y+12
 1953 02d6 E05C      		subi r30,lo8(-(64))
 1954 02d8 FF4F      		sbci r31,hi8(-(64))
 1955 02da 6080      		ld r6,Z
 1956 02dc 7180      		ldd r7,Z+1
 1957 02de E054      		subi r30,lo8(-(-64))
 1958 02e0 F040      		sbci r31,hi8(-(-64))
 1959 02e2 FC87      		std Y+12,r31
 1960 02e4 EB87      		std Y+11,r30
 1961 02e6 6114      		cp r6,__zero_reg__
 1962 02e8 7104      		cpc r7,__zero_reg__
 1963 02ea 01F4      		brne .+2
 1964 02ec 00C0      		rjmp .L118
 1965 02ee 242F      		mov r18,r20
 1966 02f0 30E0      		ldi r19,lo8(0)
 1967 02f2 40E0      		ldi r20,lo8(0)
 1968 02f4 50E0      		ldi r21,hi8(0)
 1969 02f6 C601      		movw r24,r12
 1970 02f8 B501      		movw r22,r10
 1971 02fa 0E94 0000 		call __mulsi3
 1972 02fe 6983      		std Y+1,r22
 1973 0300 7A83      		std Y+2,r23
 1974 0302 8B83      		std Y+3,r24
 1975 0304 9C83      		std Y+4,r25
 1976 0306 2301      		movw r4,r6
 1977 0308 6624      		clr r6
 1978 030a 7724      		clr r7
 1979 030c A4E0      		ldi r26,4
 1980 030e 9694      	1:	lsr r9
 1981 0310 8794      		ror r8
 1982 0312 AA95      		dec r26
 1983 0314 01F4      		brne 1b
 1984 0316 5401      		movw r10,r8
 1985 0318 CC24      		clr r12
 1986 031a DD24      		clr r13
 1987 031c A40C      		add r10,r4
 1988 031e B51C      		adc r11,r5
 1989 0320 C61C      		adc r12,r6
 1990 0322 D71C      		adc r13,r7
 1991 0324 A60E      		add r10,r22
 1992 0326 B71E      		adc r11,r23
 1993 0328 C81E      		adc r12,r24
 1994 032a D91E      		adc r13,r25
 1995 032c EA14      		cp r14,r10
 1996 032e FB04      		cpc r15,r11
 1997 0330 0C05      		cpc r16,r12
 1998 0332 1D05      		cpc r17,r13
 1999 0334 00F4      		brsh .+2
 2000 0336 00C0      		rjmp .L118
 2001 0338 EA18      		sub r14,r10
 2002 033a FB08      		sbc r15,r11
 2003 033c 0C09      		sbc r16,r12
 2004 033e 1D09      		sbc r17,r13
 2005 0340 AB85      		ldd r26,Y+11
 2006 0342 BC85      		ldd r27,Y+12
 2007 0344 1296      		adiw r26,2
 2008 0346 2C91      		ld r18,X
 2009 0348 30E0      		ldi r19,lo8(0)
 2010 034a 40E0      		ldi r20,lo8(0)
 2011 034c 50E0      		ldi r21,hi8(0)
 2012 034e C801      		movw r24,r16
 2013 0350 B701      		movw r22,r14
 2014 0352 0E94 0000 		call __udivmodsi4
 2015 0356 C901      		movw r24,r18
 2016 0358 DA01      		movw r26,r20
 2017 035a 0097      		sbiw r24,0
 2018 035c A105      		cpc r26,__zero_reg__
 2019 035e B105      		cpc r27,__zero_reg__
 2020 0360 01F4      		brne .+2
 2021 0362 00C0      		rjmp .L118
 2022 0364 863F      		cpi r24,lo8(4086)
 2023 0366 EFE0      		ldi r30,hi8(4086)
 2024 0368 9E07      		cpc r25,r30
 2025 036a E0E0      		ldi r30,hlo8(4086)
 2026 036c AE07      		cpc r26,r30
 2027 036e E0E0      		ldi r30,hhi8(4086)
 2028 0370 BE07      		cpc r27,r30
 2029 0372 00F4      		brsh .L121
 2030 0374 9924      		clr r9
 2031 0376 9394      		inc r9
 2032 0378 00C0      		rjmp .L122
 2033               	.L121:
 2034 037a 863F      		cpi r24,lo8(65526)
 2035 037c FFEF      		ldi r31,hi8(65526)
 2036 037e 9F07      		cpc r25,r31
 2037 0380 F0E0      		ldi r31,hlo8(65526)
 2038 0382 AF07      		cpc r26,r31
 2039 0384 F0E0      		ldi r31,hhi8(65526)
 2040 0386 BF07      		cpc r27,r31
 2041 0388 00F0      		brlo .L123
 2042 038a F3E0      		ldi r31,lo8(3)
 2043 038c 9F2E      		mov r9,r31
 2044 038e 00C0      		rjmp .L122
 2045               	.L123:
 2046 0390 E2E0      		ldi r30,lo8(2)
 2047 0392 9E2E      		mov r9,r30
 2048               	.L122:
 2049 0394 72E0      		ldi r23,lo8(2)
 2050 0396 E72E      		mov r14,r23
 2051 0398 F12C      		mov r15,__zero_reg__
 2052 039a 012D      		mov r16,__zero_reg__
 2053 039c 112D      		mov r17,__zero_reg__
 2054 039e E80E      		add r14,r24
 2055 03a0 F91E      		adc r15,r25
 2056 03a2 0A1F      		adc r16,r26
 2057 03a4 1B1F      		adc r17,r27
 2058 03a6 AB85      		ldd r26,Y+11
 2059 03a8 BC85      		ldd r27,Y+12
 2060 03aa 5A96      		adiw r26,26
 2061 03ac ED92      		st X+,r14
 2062 03ae FD92      		st X+,r15
 2063 03b0 0D93      		st X+,r16
 2064 03b2 1C93      		st X,r17
 2065 03b4 5D97      		sbiw r26,26+3
 2066 03b6 2F81      		ldd r18,Y+7
 2067 03b8 3885      		ldd r19,Y+8
 2068 03ba 4985      		ldd r20,Y+9
 2069 03bc 5A85      		ldd r21,Y+10
 2070 03be A20E      		add r10,r18
 2071 03c0 B31E      		adc r11,r19
 2072 03c2 C41E      		adc r12,r20
 2073 03c4 D51E      		adc r13,r21
 2074 03c6 9A96      		adiw r26,42
 2075 03c8 AD92      		st X+,r10
 2076 03ca BD92      		st X+,r11
 2077 03cc CD92      		st X+,r12
 2078 03ce DC92      		st X,r13
 2079 03d0 9D97      		sbiw r26,42+3
 2080 03d2 DA01      		movw r26,r20
 2081 03d4 C901      		movw r24,r18
 2082 03d6 840D      		add r24,r4
 2083 03d8 951D      		adc r25,r5
 2084 03da A61D      		adc r26,r6
 2085 03dc B71D      		adc r27,r7
 2086 03de EB85      		ldd r30,Y+11
 2087 03e0 FC85      		ldd r31,Y+12
 2088 03e2 82A3      		std Z+34,r24
 2089 03e4 93A3      		std Z+35,r25
 2090 03e6 A4A3      		std Z+36,r26
 2091 03e8 B5A3      		std Z+37,r27
 2092 03ea 2085      		ldd r18,Z+8
 2093 03ec 3185      		ldd r19,Z+9
 2094 03ee F3E0      		ldi r31,lo8(3)
 2095 03f0 9F16      		cp r9,r31
 2096 03f2 01F4      		brne .L124
 2097 03f4 232B      		or r18,r19
 2098 03f6 01F0      		breq .+2
 2099 03f8 00C0      		rjmp .L118
 2100 03fa 2B85      		ldd r18,Y+11
 2101 03fc 3C85      		ldd r19,Y+12
 2102 03fe 225A      		subi r18,lo8(-(94))
 2103 0400 3F4F      		sbci r19,hi8(-(94))
 2104 0402 F901      		movw r30,r18
 2105 0404 8081      		ld r24,Z
 2106 0406 9181      		ldd r25,Z+1
 2107 0408 A281      		ldd r26,Z+2
 2108 040a B381      		ldd r27,Z+3
 2109 040c EE55      		subi r30,lo8(-(-94))
 2110 040e F040      		sbci r31,hi8(-(-94))
 2111 0410 FC87      		std Y+12,r31
 2112 0412 EB87      		std Y+11,r30
 2113 0414 86A3      		std Z+38,r24
 2114 0416 97A3      		std Z+39,r25
 2115 0418 A0A7      		std Z+40,r26
 2116 041a B1A7      		std Z+41,r27
 2117 041c A801      		movw r20,r16
 2118 041e 9701      		movw r18,r14
 2119 0420 62E0      		ldi r22,2
 2120 0422 220F      	1:	lsl r18
 2121 0424 331F      		rol r19
 2122 0426 441F      		rol r20
 2123 0428 551F      		rol r21
 2124 042a 6A95      		dec r22
 2125 042c 01F4      		brne 1b
 2126 042e 00C0      		rjmp .L125
 2127               	.L124:
 2128 0430 232B      		or r18,r19
 2129 0432 01F4      		brne .+2
 2130 0434 00C0      		rjmp .L118
 2131 0436 2981      		ldd r18,Y+1
 2132 0438 3A81      		ldd r19,Y+2
 2133 043a 4B81      		ldd r20,Y+3
 2134 043c 5C81      		ldd r21,Y+4
 2135 043e 820F      		add r24,r18
 2136 0440 931F      		adc r25,r19
 2137 0442 A41F      		adc r26,r20
 2138 0444 B51F      		adc r27,r21
 2139 0446 EB85      		ldd r30,Y+11
 2140 0448 FC85      		ldd r31,Y+12
 2141 044a 86A3      		std Z+38,r24
 2142 044c 97A3      		std Z+39,r25
 2143 044e A0A7      		std Z+40,r26
 2144 0450 B1A7      		std Z+41,r27
 2145 0452 D801      		movw r26,r16
 2146 0454 C701      		movw r24,r14
 2147 0456 880F      		lsl r24
 2148 0458 991F      		rol r25
 2149 045a AA1F      		rol r26
 2150 045c BB1F      		rol r27
 2151 045e F2E0      		ldi r31,lo8(2)
 2152 0460 9F16      		cp r9,r31
 2153 0462 01F4      		brne .L126
 2154 0464 9C01      		movw r18,r24
 2155 0466 AD01      		movw r20,r26
 2156 0468 00C0      		rjmp .L125
 2157               	.L126:
 2158 046a 9C01      		movw r18,r24
 2159 046c AD01      		movw r20,r26
 2160 046e 2E0D      		add r18,r14
 2161 0470 3F1D      		adc r19,r15
 2162 0472 401F      		adc r20,r16
 2163 0474 511F      		adc r21,r17
 2164 0476 5695      		lsr r21
 2165 0478 4795      		ror r20
 2166 047a 3795      		ror r19
 2167 047c 2795      		ror r18
 2168 047e 81E0      		ldi r24,lo8(1)
 2169 0480 90E0      		ldi r25,hi8(1)
 2170 0482 A0E0      		ldi r26,hlo8(1)
 2171 0484 B0E0      		ldi r27,hhi8(1)
 2172 0486 E822      		and r14,r24
 2173 0488 F922      		and r15,r25
 2174 048a 0A23      		and r16,r26
 2175 048c 1B23      		and r17,r27
 2176 048e 2E0D      		add r18,r14
 2177 0490 3F1D      		adc r19,r15
 2178 0492 401F      		adc r20,r16
 2179 0494 511F      		adc r21,r17
 2180               	.L125:
 2181 0496 2150      		subi r18,lo8(-(511))
 2182 0498 3E4F      		sbci r19,hi8(-(511))
 2183 049a 4F4F      		sbci r20,hlo8(-(511))
 2184 049c 5F4F      		sbci r21,hhi8(-(511))
 2185 049e 19E0      		ldi r17,9
 2186 04a0 5695      	1:	lsr r21
 2187 04a2 4795      		ror r20
 2188 04a4 3795      		ror r19
 2189 04a6 2795      		ror r18
 2190 04a8 1A95      		dec r17
 2191 04aa 01F4      		brne 1b
 2192 04ac EB85      		ldd r30,Y+11
 2193 04ae FC85      		ldd r31,Y+12
 2194 04b0 868D      		ldd r24,Z+30
 2195 04b2 978D      		ldd r25,Z+31
 2196 04b4 A0A1      		ldd r26,Z+32
 2197 04b6 B1A1      		ldd r27,Z+33
 2198 04b8 8217      		cp r24,r18
 2199 04ba 9307      		cpc r25,r19
 2200 04bc A407      		cpc r26,r20
 2201 04be B507      		cpc r27,r21
 2202 04c0 00F4      		brsh .+2
 2203 04c2 00C0      		rjmp .L118
 2204 04c4 8FEF      		ldi r24,lo8(-1)
 2205 04c6 9FEF      		ldi r25,hi8(-1)
 2206 04c8 AFEF      		ldi r26,hlo8(-1)
 2207 04ca BFEF      		ldi r27,hhi8(-1)
 2208 04cc 8687      		std Z+14,r24
 2209 04ce 9787      		std Z+15,r25
 2210 04d0 A08B      		std Z+16,r26
 2211 04d2 B18B      		std Z+17,r27
 2212 04d4 1286      		std Z+10,__zero_reg__
 2213 04d6 1386      		std Z+11,__zero_reg__
 2214 04d8 1486      		std Z+12,__zero_reg__
 2215 04da 1586      		std Z+13,__zero_reg__
 2216 04dc B3E0      		ldi r27,lo8(3)
 2217 04de 9B16      		cp r9,r27
 2218 04e0 01F0      		breq .+2
 2219 04e2 00C0      		rjmp .L127
 2220 04e4 1582      		std Z+5,__zero_reg__
 2221 04e6 EE59      		subi r30,lo8(-(98))
 2222 04e8 FF4F      		sbci r31,hi8(-(98))
 2223 04ea 2081      		ld r18,Z
 2224 04ec 3181      		ldd r19,Z+1
 2225 04ee E256      		subi r30,lo8(-(-98))
 2226 04f0 F040      		sbci r31,hi8(-(-98))
 2227 04f2 FC87      		std Y+12,r31
 2228 04f4 EB87      		std Y+11,r30
 2229 04f6 40E0      		ldi r20,lo8(0)
 2230 04f8 50E0      		ldi r21,hi8(0)
 2231 04fa 8F81      		ldd r24,Y+7
 2232 04fc 9885      		ldd r25,Y+8
 2233 04fe A985      		ldd r26,Y+9
 2234 0500 BA85      		ldd r27,Y+10
 2235 0502 280F      		add r18,r24
 2236 0504 391F      		adc r19,r25
 2237 0506 4A1F      		adc r20,r26
 2238 0508 5B1F      		adc r21,r27
 2239 050a 228B      		std Z+18,r18
 2240 050c 338B      		std Z+19,r19
 2241 050e 448B      		std Z+20,r20
 2242 0510 558B      		std Z+21,r21
 2243 0512 8181      		ldd r24,Z+1
 2244 0514 6D81      		ldd r22,Y+5
 2245 0516 7E81      		ldd r23,Y+6
 2246 0518 01E0      		ldi r16,lo8(1)
 2247 051a 0E94 0000 		call disk_read
 2248 051e 8823      		tst r24
 2249 0520 01F0      		breq .+2
 2250 0522 00C0      		rjmp .L127
 2251 0524 F101      		movw r30,r2
 2252 0526 8081      		ld r24,Z
 2253 0528 9181      		ldd r25,Z+1
 2254 052a 8555      		subi r24,lo8(-21931)
 2255 052c 9A4A      		sbci r25,hi8(-21931)
 2256 052e 01F0      		breq .+2
 2257 0530 00C0      		rjmp .L127
 2258 0532 EB85      		ldd r30,Y+11
 2259 0534 FC85      		ldd r31,Y+12
 2260 0536 82A9      		ldd r24,Z+50
 2261 0538 93A9      		ldd r25,Z+51
 2262 053a A4A9      		ldd r26,Z+52
 2263 053c B5A9      		ldd r27,Z+53
 2264 053e 8255      		subi r24,lo8(1096897106)
 2265 0540 9245      		sbci r25,hi8(1096897106)
 2266 0542 A146      		sbci r26,hlo8(1096897106)
 2267 0544 B144      		sbci r27,hhi8(1096897106)
 2268 0546 01F4      		brne .L127
 2269 0548 2B85      		ldd r18,Y+11
 2270 054a 3C85      		ldd r19,Y+12
 2271 054c 2A5E      		subi r18,lo8(-(534))
 2272 054e 3D4F      		sbci r19,hi8(-(534))
 2273 0550 F901      		movw r30,r18
 2274 0552 8081      		ld r24,Z
 2275 0554 9181      		ldd r25,Z+1
 2276 0556 A281      		ldd r26,Z+2
 2277 0558 B381      		ldd r27,Z+3
 2278 055a E651      		subi r30,lo8(-(-534))
 2279 055c F240      		sbci r31,hi8(-(-534))
 2280 055e FC87      		std Y+12,r31
 2281 0560 EB87      		std Y+11,r30
 2282 0562 8257      		subi r24,lo8(1631679090)
 2283 0564 9247      		sbci r25,hi8(1631679090)
 2284 0566 A144      		sbci r26,hlo8(1631679090)
 2285 0568 B146      		sbci r27,hhi8(1631679090)
 2286 056a 01F4      		brne .L127
 2287 056c 2B85      		ldd r18,Y+11
 2288 056e 3C85      		ldd r19,Y+12
 2289 0570 225E      		subi r18,lo8(-(542))
 2290 0572 3D4F      		sbci r19,hi8(-(542))
 2291 0574 F901      		movw r30,r18
 2292 0576 8081      		ld r24,Z
 2293 0578 9181      		ldd r25,Z+1
 2294 057a A281      		ldd r26,Z+2
 2295 057c B381      		ldd r27,Z+3
 2296 057e EE51      		subi r30,lo8(-(-542))
 2297 0580 F240      		sbci r31,hi8(-(-542))
 2298 0582 8287      		std Z+10,r24
 2299 0584 9387      		std Z+11,r25
 2300 0586 A487      		std Z+12,r26
 2301 0588 B587      		std Z+13,r27
 2302 058a E65E      		subi r30,lo8(-(538))
 2303 058c FD4F      		sbci r31,hi8(-(538))
 2304 058e 8081      		ld r24,Z
 2305 0590 9181      		ldd r25,Z+1
 2306 0592 A281      		ldd r26,Z+2
 2307 0594 B381      		ldd r27,Z+3
 2308 0596 EA51      		subi r30,lo8(-(-538))
 2309 0598 F240      		sbci r31,hi8(-(-538))
 2310 059a FC87      		std Y+12,r31
 2311 059c EB87      		std Y+11,r30
 2312 059e 8687      		std Z+14,r24
 2313 05a0 9787      		std Z+15,r25
 2314 05a2 A08B      		std Z+16,r26
 2315 05a4 B18B      		std Z+17,r27
 2316               	.L127:
 2317 05a6 AB85      		ldd r26,Y+11
 2318 05a8 BC85      		ldd r27,Y+12
 2319 05aa 9C92      		st X,r9
 2320 05ac 8091 0000 		lds r24,Fsid
 2321 05b0 9091 0000 		lds r25,(Fsid)+1
 2322 05b4 0196      		adiw r24,1
 2323 05b6 9093 0000 		sts (Fsid)+1,r25
 2324 05ba 8093 0000 		sts Fsid,r24
 2325 05be 1796      		adiw r26,6+1
 2326 05c0 9C93      		st X,r25
 2327 05c2 8E93      		st -X,r24
 2328 05c4 1697      		sbiw r26,6
 2329 05c6 EB85      		ldd r30,Y+11
 2330 05c8 FC85      		ldd r31,Y+12
 2331 05ca 16A6      		std Z+46,__zero_reg__
 2332 05cc 17A6      		std Z+47,__zero_reg__
 2333 05ce 10AA      		std Z+48,__zero_reg__
 2334 05d0 11AA      		std Z+49,__zero_reg__
 2335 05d2 1482      		std Z+4,__zero_reg__
 2336 05d4 AB85      		ldd r26,Y+11
 2337 05d6 BC85      		ldd r27,Y+12
 2338 05d8 5696      		adiw r26,22
 2339 05da 1D92      		st X+,__zero_reg__
 2340 05dc 1D92      		st X+,__zero_reg__
 2341 05de 1D92      		st X+,__zero_reg__
 2342 05e0 1C92      		st X,__zero_reg__
 2343 05e2 5997      		sbiw r26,22+3
 2344 05e4 00C0      		rjmp .L106
 2345               	.L107:
 2346 05e6 8AE0      		ldi r24,lo8(10)
 2347 05e8 00C0      		rjmp .L103
 2348               	.L106:
 2349 05ea 80E0      		ldi r24,lo8(0)
 2350 05ec 00C0      		rjmp .L103
 2351               	.L110:
 2352 05ee 81E0      		ldi r24,lo8(1)
 2353 05f0 00C0      		rjmp .L103
 2354               	.L118:
 2355 05f2 8DE0      		ldi r24,lo8(13)
 2356               	.L103:
 2357               	/* epilogue start */
 2358 05f4 2C96      		adiw r28,12
 2359 05f6 0FB6      		in __tmp_reg__,__SREG__
 2360 05f8 F894      		cli
 2361 05fa DEBF      		out __SP_H__,r29
 2362 05fc 0FBE      		out __SREG__,__tmp_reg__
 2363 05fe CDBF      		out __SP_L__,r28
 2364 0600 CF91      		pop r28
 2365 0602 DF91      		pop r29
 2366 0604 1F91      		pop r17
 2367 0606 0F91      		pop r16
 2368 0608 FF90      		pop r15
 2369 060a EF90      		pop r14
 2370 060c DF90      		pop r13
 2371 060e CF90      		pop r12
 2372 0610 BF90      		pop r11
 2373 0612 AF90      		pop r10
 2374 0614 9F90      		pop r9
 2375 0616 8F90      		pop r8
 2376 0618 7F90      		pop r7
 2377 061a 6F90      		pop r6
 2378 061c 5F90      		pop r5
 2379 061e 4F90      		pop r4
 2380 0620 3F90      		pop r3
 2381 0622 2F90      		pop r2
 2382 0624 0895      		ret
 2383               	.L131:
 2384 0626 2B85      		ldd r18,Y+11
 2385 0628 3C85      		ldd r19,Y+12
 2386 062a 2051      		subi r18,lo8(-(496))
 2387 062c 3E4F      		sbci r19,hi8(-(496))
 2388 062e F901      		movw r30,r18
 2389 0630 8481      		ldd r24,Z+4
 2390 0632 8823      		tst r24
 2391 0634 01F0      		breq .L118
 2392 0636 00C0      		rjmp .L132
 2393               	.L113:
 2394 0638 80E0      		ldi r24,lo8(0)
 2395               	.L112:
 2396 063a 1F82      		std Y+7,__zero_reg__
 2397 063c 1886      		std Y+8,__zero_reg__
 2398 063e 1986      		std Y+9,__zero_reg__
 2399 0640 1A86      		std Y+10,__zero_reg__
 2400 0642 8823      		tst r24
 2401 0644 01F4      		brne .+2
 2402 0646 00C0      		rjmp .L130
 2403 0648 00C0      		rjmp .L118
 2405               		.section	.text.move_window,"ax",@progbits
 2407               	move_window:
 2408 0000 6F92      		push r6
 2409 0002 7F92      		push r7
 2410 0004 8F92      		push r8
 2411 0006 9F92      		push r9
 2412 0008 AF92      		push r10
 2413 000a BF92      		push r11
 2414 000c CF92      		push r12
 2415 000e DF92      		push r13
 2416 0010 EF92      		push r14
 2417 0012 FF92      		push r15
 2418 0014 0F93      		push r16
 2419 0016 1F93      		push r17
 2420 0018 CF93      		push r28
 2421 001a DF93      		push r29
 2422               	/* prologue: function */
 2423               	/* frame size = 0 */
 2424 001c EC01      		movw r28,r24
 2425 001e 4A01      		movw r8,r20
 2426 0020 5B01      		movw r10,r22
 2427 0022 CEA4      		ldd r12,Y+46
 2428 0024 DFA4      		ldd r13,Y+47
 2429 0026 E8A8      		ldd r14,Y+48
 2430 0028 F9A8      		ldd r15,Y+49
 2431 002a C416      		cp r12,r20
 2432 002c D506      		cpc r13,r21
 2433 002e E606      		cpc r14,r22
 2434 0030 F706      		cpc r15,r23
 2435 0032 01F4      		brne .+2
 2436 0034 00C0      		rjmp .L134
 2437 0036 8C81      		ldd r24,Y+4
 2438 0038 8823      		tst r24
 2439 003a 01F0      		breq .L135
 2440 003c 92E3      		ldi r25,lo8(50)
 2441 003e 692E      		mov r6,r25
 2442 0040 712C      		mov r7,__zero_reg__
 2443 0042 6C0E      		add r6,r28
 2444 0044 7D1E      		adc r7,r29
 2445 0046 8981      		ldd r24,Y+1
 2446 0048 B301      		movw r22,r6
 2447 004a A701      		movw r20,r14
 2448 004c 9601      		movw r18,r12
 2449 004e 01E0      		ldi r16,lo8(1)
 2450 0050 0E94 0000 		call disk_write
 2451 0054 8823      		tst r24
 2452 0056 01F4      		brne .L136
 2453 0058 1C82      		std Y+4,__zero_reg__
 2454 005a 8E8D      		ldd r24,Y+30
 2455 005c 9F8D      		ldd r25,Y+31
 2456 005e A8A1      		ldd r26,Y+32
 2457 0060 B9A1      		ldd r27,Y+33
 2458 0062 2AA1      		ldd r18,Y+34
 2459 0064 3BA1      		ldd r19,Y+35
 2460 0066 4CA1      		ldd r20,Y+36
 2461 0068 5DA1      		ldd r21,Y+37
 2462 006a 820F      		add r24,r18
 2463 006c 931F      		adc r25,r19
 2464 006e A41F      		adc r26,r20
 2465 0070 B51F      		adc r27,r21
 2466 0072 C816      		cp r12,r24
 2467 0074 D906      		cpc r13,r25
 2468 0076 EA06      		cpc r14,r26
 2469 0078 FB06      		cpc r15,r27
 2470 007a 00F4      		brsh .L135
 2471 007c 1B81      		ldd r17,Y+3
 2472 007e 00C0      		rjmp .L137
 2473               	.L138:
 2474 0080 8E8D      		ldd r24,Y+30
 2475 0082 9F8D      		ldd r25,Y+31
 2476 0084 A8A1      		ldd r26,Y+32
 2477 0086 B9A1      		ldd r27,Y+33
 2478 0088 C80E      		add r12,r24
 2479 008a D91E      		adc r13,r25
 2480 008c EA1E      		adc r14,r26
 2481 008e FB1E      		adc r15,r27
 2482 0090 8981      		ldd r24,Y+1
 2483 0092 B301      		movw r22,r6
 2484 0094 A701      		movw r20,r14
 2485 0096 9601      		movw r18,r12
 2486 0098 01E0      		ldi r16,lo8(1)
 2487 009a 0E94 0000 		call disk_write
 2488 009e 1150      		subi r17,lo8(-(-1))
 2489               	.L137:
 2490 00a0 1230      		cpi r17,lo8(2)
 2491 00a2 00F4      		brsh .L138
 2492               	.L135:
 2493 00a4 8114      		cp r8,__zero_reg__
 2494 00a6 9104      		cpc r9,__zero_reg__
 2495 00a8 A104      		cpc r10,__zero_reg__
 2496 00aa B104      		cpc r11,__zero_reg__
 2497 00ac 01F0      		breq .L134
 2498 00ae BE01      		movw r22,r28
 2499 00b0 6E5C      		subi r22,lo8(-(50))
 2500 00b2 7F4F      		sbci r23,hi8(-(50))
 2501 00b4 8981      		ldd r24,Y+1
 2502 00b6 A501      		movw r20,r10
 2503 00b8 9401      		movw r18,r8
 2504 00ba 01E0      		ldi r16,lo8(1)
 2505 00bc 0E94 0000 		call disk_read
 2506 00c0 8823      		tst r24
 2507 00c2 01F4      		brne .L136
 2508 00c4 8EA6      		std Y+46,r8
 2509 00c6 9FA6      		std Y+47,r9
 2510 00c8 A8AA      		std Y+48,r10
 2511 00ca B9AA      		std Y+49,r11
 2512 00cc 00C0      		rjmp .L139
 2513               	.L136:
 2514 00ce 81E0      		ldi r24,lo8(1)
 2515 00d0 00C0      		rjmp .L139
 2516               	.L134:
 2517 00d2 80E0      		ldi r24,lo8(0)
 2518               	.L139:
 2519               	/* epilogue start */
 2520 00d4 DF91      		pop r29
 2521 00d6 CF91      		pop r28
 2522 00d8 1F91      		pop r17
 2523 00da 0F91      		pop r16
 2524 00dc FF90      		pop r15
 2525 00de EF90      		pop r14
 2526 00e0 DF90      		pop r13
 2527 00e2 CF90      		pop r12
 2528 00e4 BF90      		pop r11
 2529 00e6 AF90      		pop r10
 2530 00e8 9F90      		pop r9
 2531 00ea 8F90      		pop r8
 2532 00ec 7F90      		pop r7
 2533 00ee 6F90      		pop r6
 2534 00f0 0895      		ret
 2536               		.section	.text.sync,"ax",@progbits
 2538               	sync:
 2539 0000 0F93      		push r16
 2540 0002 CF93      		push r28
 2541 0004 DF93      		push r29
 2542               	/* prologue: function */
 2543               	/* frame size = 0 */
 2544 0006 EC01      		movw r28,r24
 2545 0008 40E0      		ldi r20,lo8(0)
 2546 000a 50E0      		ldi r21,hi8(0)
 2547 000c 60E0      		ldi r22,hlo8(0)
 2548 000e 70E0      		ldi r23,hhi8(0)
 2549 0010 0E94 0000 		call move_window
 2550 0014 8823      		tst r24
 2551 0016 01F0      		breq .+2
 2552 0018 00C0      		rjmp .L142
 2553 001a 8881      		ld r24,Y
 2554 001c 8330      		cpi r24,lo8(3)
 2555 001e 01F0      		breq .+2
 2556 0020 00C0      		rjmp .L143
 2557 0022 8D81      		ldd r24,Y+5
 2558 0024 8823      		tst r24
 2559 0026 01F4      		brne .+2
 2560 0028 00C0      		rjmp .L143
 2561 002a 1EA6      		std Y+46,__zero_reg__
 2562 002c 1FA6      		std Y+47,__zero_reg__
 2563 002e 18AA      		std Y+48,__zero_reg__
 2564 0030 19AA      		std Y+49,__zero_reg__
 2565 0032 BE01      		movw r22,r28
 2566 0034 6E5C      		subi r22,lo8(-(50))
 2567 0036 7F4F      		sbci r23,hi8(-(50))
 2568 0038 FB01      		movw r30,r22
 2569 003a 80E0      		ldi r24,lo8(512)
 2570 003c 92E0      		ldi r25,hi8(512)
 2571 003e 00C0      		rjmp .L144
 2572               	.L145:
 2573 0040 1192      		st Z+,__zero_reg__
 2574               	.L144:
 2575 0042 0197      		sbiw r24,1
 2576 0044 2FEF      		ldi r18,hi8(-1)
 2577 0046 8F3F      		cpi r24,lo8(-1)
 2578 0048 9207      		cpc r25,r18
 2579 004a 01F4      		brne .L145
 2580 004c C05D      		subi r28,lo8(-(560))
 2581 004e DD4F      		sbci r29,hi8(-(560))
 2582 0050 85E5      		ldi r24,lo8(-21931)
 2583 0052 9AEA      		ldi r25,hi8(-21931)
 2584 0054 9983      		std Y+1,r25
 2585 0056 8883      		st Y,r24
 2586 0058 C053      		subi r28,lo8(-(-560))
 2587 005a D240      		sbci r29,hi8(-(-560))
 2588 005c 82E5      		ldi r24,lo8(1096897106)
 2589 005e 92E5      		ldi r25,hi8(1096897106)
 2590 0060 A1E6      		ldi r26,hlo8(1096897106)
 2591 0062 B1E4      		ldi r27,hhi8(1096897106)
 2592 0064 8AAB      		std Y+50,r24
 2593 0066 9BAB      		std Y+51,r25
 2594 0068 ACAB      		std Y+52,r26
 2595 006a BDAB      		std Y+53,r27
 2596 006c CA5E      		subi r28,lo8(-(534))
 2597 006e DD4F      		sbci r29,hi8(-(534))
 2598 0070 82E7      		ldi r24,lo8(1631679090)
 2599 0072 92E7      		ldi r25,hi8(1631679090)
 2600 0074 A1E4      		ldi r26,hlo8(1631679090)
 2601 0076 B1E6      		ldi r27,hhi8(1631679090)
 2602 0078 8883      		st Y,r24
 2603 007a 9983      		std Y+1,r25
 2604 007c AA83      		std Y+2,r26
 2605 007e BB83      		std Y+3,r27
 2606 0080 C651      		subi r28,lo8(-(-534))
 2607 0082 D240      		sbci r29,hi8(-(-534))
 2608 0084 8E85      		ldd r24,Y+14
 2609 0086 9F85      		ldd r25,Y+15
 2610 0088 A889      		ldd r26,Y+16
 2611 008a B989      		ldd r27,Y+17
 2612 008c C65E      		subi r28,lo8(-(538))
 2613 008e DD4F      		sbci r29,hi8(-(538))
 2614 0090 8883      		st Y,r24
 2615 0092 9983      		std Y+1,r25
 2616 0094 AA83      		std Y+2,r26
 2617 0096 BB83      		std Y+3,r27
 2618 0098 CA51      		subi r28,lo8(-(-538))
 2619 009a D240      		sbci r29,hi8(-(-538))
 2620 009c 8A85      		ldd r24,Y+10
 2621 009e 9B85      		ldd r25,Y+11
 2622 00a0 AC85      		ldd r26,Y+12
 2623 00a2 BD85      		ldd r27,Y+13
 2624 00a4 C25E      		subi r28,lo8(-(542))
 2625 00a6 DD4F      		sbci r29,hi8(-(542))
 2626 00a8 8883      		st Y,r24
 2627 00aa 9983      		std Y+1,r25
 2628 00ac AA83      		std Y+2,r26
 2629 00ae BB83      		std Y+3,r27
 2630 00b0 CE51      		subi r28,lo8(-(-542))
 2631 00b2 D240      		sbci r29,hi8(-(-542))
 2632 00b4 2A89      		ldd r18,Y+18
 2633 00b6 3B89      		ldd r19,Y+19
 2634 00b8 4C89      		ldd r20,Y+20
 2635 00ba 5D89      		ldd r21,Y+21
 2636 00bc 8981      		ldd r24,Y+1
 2637 00be 01E0      		ldi r16,lo8(1)
 2638 00c0 0E94 0000 		call disk_write
 2639 00c4 1D82      		std Y+5,__zero_reg__
 2640               	.L143:
 2641 00c6 8981      		ldd r24,Y+1
 2642 00c8 60E0      		ldi r22,lo8(0)
 2643 00ca 40E0      		ldi r20,lo8(0)
 2644 00cc 50E0      		ldi r21,hi8(0)
 2645 00ce 0E94 0000 		call disk_ioctl
 2646 00d2 8111      		cpse r24,__zero_reg__
 2647 00d4 81E0      		ldi r24,lo8(1)
 2648               	.L142:
 2649               	/* epilogue start */
 2650 00d6 DF91      		pop r29
 2651 00d8 CF91      		pop r28
 2652 00da 0F91      		pop r16
 2653 00dc 0895      		ret
 2655               		.section	.text.f_sync,"ax",@progbits
 2656               	.global	f_sync
 2658               	f_sync:
 2659 0000 0F93      		push r16
 2660 0002 1F93      		push r17
 2661 0004 CF93      		push r28
 2662 0006 DF93      		push r29
 2663               	/* prologue: function */
 2664               	/* frame size = 0 */
 2665 0008 EC01      		movw r28,r24
 2666 000a 6A81      		ldd r22,Y+2
 2667 000c 7B81      		ldd r23,Y+3
 2668 000e 8881      		ld r24,Y
 2669 0010 9981      		ldd r25,Y+1
 2670 0012 0E94 0000 		call validate
 2671 0016 982F      		mov r25,r24
 2672 0018 8823      		tst r24
 2673 001a 01F4      		brne .L149
 2674 001c 8C81      		ldd r24,Y+4
 2675 001e 85FF      		sbrs r24,5
 2676 0020 00C0      		rjmp .L149
 2677 0022 4A8D      		ldd r20,Y+26
 2678 0024 5B8D      		ldd r21,Y+27
 2679 0026 6C8D      		ldd r22,Y+28
 2680 0028 7D8D      		ldd r23,Y+29
 2681 002a 8881      		ld r24,Y
 2682 002c 9981      		ldd r25,Y+1
 2683 002e 0E94 0000 		call move_window
 2684 0032 982F      		mov r25,r24
 2685 0034 8823      		tst r24
 2686 0036 01F4      		brne .L149
 2687 0038 0E8D      		ldd r16,Y+30
 2688 003a 1F8D      		ldd r17,Y+31
 2689 003c F801      		movw r30,r16
 2690 003e 8385      		ldd r24,Z+11
 2691 0040 8062      		ori r24,lo8(32)
 2692 0042 8387      		std Z+11,r24
 2693 0044 8A85      		ldd r24,Y+10
 2694 0046 9B85      		ldd r25,Y+11
 2695 0048 AC85      		ldd r26,Y+12
 2696 004a BD85      		ldd r27,Y+13
 2697 004c 848F      		std Z+28,r24
 2698 004e 958F      		std Z+29,r25
 2699 0050 A68F      		std Z+30,r26
 2700 0052 B78F      		std Z+31,r27
 2701 0054 8E85      		ldd r24,Y+14
 2702 0056 9F85      		ldd r25,Y+15
 2703 0058 938F      		std Z+27,r25
 2704 005a 828F      		std Z+26,r24
 2705 005c 8E85      		ldd r24,Y+14
 2706 005e 9F85      		ldd r25,Y+15
 2707 0060 A889      		ldd r26,Y+16
 2708 0062 B989      		ldd r27,Y+17
 2709 0064 CD01      		movw r24,r26
 2710 0066 AA27      		clr r26
 2711 0068 BB27      		clr r27
 2712 006a 958B      		std Z+21,r25
 2713 006c 848B      		std Z+20,r24
 2714 006e 0E94 0000 		call get_fattime
 2715 0072 F801      		movw r30,r16
 2716 0074 668B      		std Z+22,r22
 2717 0076 778B      		std Z+23,r23
 2718 0078 808F      		std Z+24,r24
 2719 007a 918F      		std Z+25,r25
 2720 007c 8C81      		ldd r24,Y+4
 2721 007e 8F7D      		andi r24,lo8(-33)
 2722 0080 8C83      		std Y+4,r24
 2723 0082 E881      		ld r30,Y
 2724 0084 F981      		ldd r31,Y+1
 2725 0086 81E0      		ldi r24,lo8(1)
 2726 0088 8483      		std Z+4,r24
 2727 008a 8881      		ld r24,Y
 2728 008c 9981      		ldd r25,Y+1
 2729 008e 0E94 0000 		call sync
 2730 0092 982F      		mov r25,r24
 2731               	.L149:
 2732 0094 892F      		mov r24,r25
 2733               	/* epilogue start */
 2734 0096 DF91      		pop r29
 2735 0098 CF91      		pop r28
 2736 009a 1F91      		pop r17
 2737 009c 0F91      		pop r16
 2738 009e 0895      		ret
 2740               		.section	.text.f_close,"ax",@progbits
 2741               	.global	f_close
 2743               	f_close:
 2744 0000 CF93      		push r28
 2745 0002 DF93      		push r29
 2746               	/* prologue: function */
 2747               	/* frame size = 0 */
 2748 0004 EC01      		movw r28,r24
 2749 0006 0E94 0000 		call f_sync
 2750 000a 8823      		tst r24
 2751 000c 01F4      		brne .L152
 2752 000e 1982      		std Y+1,__zero_reg__
 2753 0010 1882      		st Y,__zero_reg__
 2754               	.L152:
 2755               	/* epilogue start */
 2756 0012 DF91      		pop r29
 2757 0014 CF91      		pop r28
 2758 0016 0895      		ret
 2760               		.section	.text.put_fat,"ax",@progbits
 2761               	.global	put_fat
 2763               	put_fat:
 2764 0000 8F92      		push r8
 2765 0002 9F92      		push r9
 2766 0004 AF92      		push r10
 2767 0006 BF92      		push r11
 2768 0008 CF92      		push r12
 2769 000a DF92      		push r13
 2770 000c EF92      		push r14
 2771 000e FF92      		push r15
 2772 0010 0F93      		push r16
 2773 0012 1F93      		push r17
 2774 0014 CF93      		push r28
 2775 0016 DF93      		push r29
 2776               	/* prologue: function */
 2777               	/* frame size = 0 */
 2778 0018 EC01      		movw r28,r24
 2779 001a 6A01      		movw r12,r20
 2780 001c 7B01      		movw r14,r22
 2781 001e 4801      		movw r8,r16
 2782 0020 5901      		movw r10,r18
 2783 0022 4230      		cpi r20,lo8(2)
 2784 0024 5105      		cpc r21,__zero_reg__
 2785 0026 6105      		cpc r22,__zero_reg__
 2786 0028 7105      		cpc r23,__zero_reg__
 2787 002a 00F4      		brsh .+2
 2788 002c 00C0      		rjmp .L155
 2789 002e 8A8D      		ldd r24,Y+26
 2790 0030 9B8D      		ldd r25,Y+27
 2791 0032 AC8D      		ldd r26,Y+28
 2792 0034 BD8D      		ldd r27,Y+29
 2793 0036 4817      		cp r20,r24
 2794 0038 5907      		cpc r21,r25
 2795 003a 6A07      		cpc r22,r26
 2796 003c 7B07      		cpc r23,r27
 2797 003e 00F0      		brlo .+2
 2798 0040 00C0      		rjmp .L155
 2799 0042 8881      		ld r24,Y
 2800 0044 8230      		cpi r24,lo8(2)
 2801 0046 01F4      		brne .+2
 2802 0048 00C0      		rjmp .L158
 2803 004a 8330      		cpi r24,lo8(3)
 2804 004c 01F4      		brne .+2
 2805 004e 00C0      		rjmp .L159
 2806 0050 8130      		cpi r24,lo8(1)
 2807 0052 01F0      		breq .L157
 2808 0054 22E0      		ldi r18,lo8(2)
 2809 0056 00C0      		rjmp .L160
 2810               	.L157:
 2811 0058 8A01      		movw r16,r20
 2812 005a 1695      		lsr r17
 2813 005c 0795      		ror r16
 2814 005e 040F      		add r16,r20
 2815 0060 151F      		adc r17,r21
 2816 0062 A801      		movw r20,r16
 2817 0064 452F      		mov r20,r21
 2818 0066 5527      		clr r21
 2819 0068 4695      		lsr r20
 2820 006a 60E0      		ldi r22,lo8(0)
 2821 006c 70E0      		ldi r23,hi8(0)
 2822 006e 8AA1      		ldd r24,Y+34
 2823 0070 9BA1      		ldd r25,Y+35
 2824 0072 ACA1      		ldd r26,Y+36
 2825 0074 BDA1      		ldd r27,Y+37
 2826 0076 480F      		add r20,r24
 2827 0078 591F      		adc r21,r25
 2828 007a 6A1F      		adc r22,r26
 2829 007c 7B1F      		adc r23,r27
 2830 007e CE01      		movw r24,r28
 2831 0080 0E94 0000 		call move_window
 2832 0084 282F      		mov r18,r24
 2833 0086 8823      		tst r24
 2834 0088 01F0      		breq .+2
 2835 008a 00C0      		rjmp .L160
 2836 008c D801      		movw r26,r16
 2837 008e B170      		andi r27,hi8(511)
 2838 0090 91E0      		ldi r25,lo8(1)
 2839 0092 E92E      		mov r14,r25
 2840 0094 F12C      		mov r15,__zero_reg__
 2841 0096 EC20      		and r14,r12
 2842 0098 FD20      		and r15,r13
 2843 009a E114      		cp r14,__zero_reg__
 2844 009c F104      		cpc r15,__zero_reg__
 2845 009e 01F0      		breq .L161
 2846 00a0 FE01      		movw r30,r28
 2847 00a2 EA0F      		add r30,r26
 2848 00a4 FB1F      		adc r31,r27
 2849 00a6 82A9      		ldd r24,Z+50
 2850 00a8 8F70      		andi r24,lo8(15)
 2851 00aa 982D      		mov r25,r8
 2852 00ac 9295      		swap r25
 2853 00ae 907F      		andi r25,lo8(-16)
 2854 00b0 982B      		or r25,r24
 2855 00b2 00C0      		rjmp .L162
 2856               	.L161:
 2857 00b4 982D      		mov r25,r8
 2858               	.L162:
 2859 00b6 AC0F      		add r26,r28
 2860 00b8 BD1F      		adc r27,r29
 2861 00ba D296      		adiw r26,50
 2862 00bc 9C93      		st X,r25
 2863 00be 0F5F      		subi r16,lo8(-(1))
 2864 00c0 1F4F      		sbci r17,hi8(-(1))
 2865 00c2 81E0      		ldi r24,lo8(1)
 2866 00c4 8C83      		std Y+4,r24
 2867 00c6 A801      		movw r20,r16
 2868 00c8 452F      		mov r20,r21
 2869 00ca 5527      		clr r21
 2870 00cc 4695      		lsr r20
 2871 00ce 60E0      		ldi r22,lo8(0)
 2872 00d0 70E0      		ldi r23,hi8(0)
 2873 00d2 8AA1      		ldd r24,Y+34
 2874 00d4 9BA1      		ldd r25,Y+35
 2875 00d6 ACA1      		ldd r26,Y+36
 2876 00d8 BDA1      		ldd r27,Y+37
 2877 00da 480F      		add r20,r24
 2878 00dc 591F      		adc r21,r25
 2879 00de 6A1F      		adc r22,r26
 2880 00e0 7B1F      		adc r23,r27
 2881 00e2 CE01      		movw r24,r28
 2882 00e4 0E94 0000 		call move_window
 2883 00e8 282F      		mov r18,r24
 2884 00ea 8823      		tst r24
 2885 00ec 01F0      		breq .+2
 2886 00ee 00C0      		rjmp .L160
 2887 00f0 A801      		movw r20,r16
 2888 00f2 5170      		andi r21,hi8(511)
 2889 00f4 EF28      		or r14,r15
 2890 00f6 01F0      		breq .L163
 2891 00f8 14E0      		ldi r17,4
 2892 00fa B694      	1:	lsr r11
 2893 00fc A794      		ror r10
 2894 00fe 9794      		ror r9
 2895 0100 8794      		ror r8
 2896 0102 1A95      		dec r17
 2897 0104 01F4      		brne 1b
 2898 0106 682D      		mov r22,r8
 2899 0108 00C0      		rjmp .L164
 2900               	.L163:
 2901 010a FE01      		movw r30,r28
 2902 010c E40F      		add r30,r20
 2903 010e F51F      		adc r31,r21
 2904 0110 62A9      		ldd r22,Z+50
 2905 0112 607F      		andi r22,lo8(-16)
 2906 0114 BB27      		clr r27
 2907 0116 AB2D      		mov r26,r11
 2908 0118 9A2D      		mov r25,r10
 2909 011a 892D      		mov r24,r9
 2910 011c 8F70      		andi r24,lo8(15)
 2911 011e 682B      		or r22,r24
 2912               	.L164:
 2913 0120 4C0F      		add r20,r28
 2914 0122 5D1F      		adc r21,r29
 2915 0124 FA01      		movw r30,r20
 2916 0126 62AB      		std Z+50,r22
 2917 0128 00C0      		rjmp .L160
 2918               	.L158:
 2919 012a 452F      		mov r20,r21
 2920 012c 562F      		mov r21,r22
 2921 012e 672F      		mov r22,r23
 2922 0130 7727      		clr r23
 2923 0132 8AA1      		ldd r24,Y+34
 2924 0134 9BA1      		ldd r25,Y+35
 2925 0136 ACA1      		ldd r26,Y+36
 2926 0138 BDA1      		ldd r27,Y+37
 2927 013a 480F      		add r20,r24
 2928 013c 591F      		adc r21,r25
 2929 013e 6A1F      		adc r22,r26
 2930 0140 7B1F      		adc r23,r27
 2931 0142 CE01      		movw r24,r28
 2932 0144 0E94 0000 		call move_window
 2933 0148 282F      		mov r18,r24
 2934 014a 8823      		tst r24
 2935 014c 01F0      		breq .+2
 2936 014e 00C0      		rjmp .L160
 2937 0150 CC0C      		lsl r12
 2938 0152 DD1C      		rol r13
 2939 0154 EE1C      		rol r14
 2940 0156 FF1C      		rol r15
 2941 0158 F601      		movw r30,r12
 2942 015a F170      		andi r31,hi8(511)
 2943 015c F296      		adiw r30,50
 2944 015e EC0F      		add r30,r28
 2945 0160 FD1F      		adc r31,r29
 2946 0162 9182      		std Z+1,r9
 2947 0164 8082      		st Z,r8
 2948 0166 00C0      		rjmp .L160
 2949               	.L159:
 2950 0168 E7E0      		ldi r30,7
 2951 016a 7695      	1:	lsr r23
 2952 016c 6795      		ror r22
 2953 016e 5795      		ror r21
 2954 0170 4795      		ror r20
 2955 0172 EA95      		dec r30
 2956 0174 01F4      		brne 1b
 2957 0176 8AA1      		ldd r24,Y+34
 2958 0178 9BA1      		ldd r25,Y+35
 2959 017a ACA1      		ldd r26,Y+36
 2960 017c BDA1      		ldd r27,Y+37
 2961 017e 480F      		add r20,r24
 2962 0180 591F      		adc r21,r25
 2963 0182 6A1F      		adc r22,r26
 2964 0184 7B1F      		adc r23,r27
 2965 0186 CE01      		movw r24,r28
 2966 0188 0E94 0000 		call move_window
 2967 018c 282F      		mov r18,r24
 2968 018e 8823      		tst r24
 2969 0190 01F4      		brne .L160
 2970 0192 32E0      		ldi r19,2
 2971 0194 CC0C      	1:	lsl r12
 2972 0196 DD1C      		rol r13
 2973 0198 EE1C      		rol r14
 2974 019a FF1C      		rol r15
 2975 019c 3A95      		dec r19
 2976 019e 01F4      		brne 1b
 2977 01a0 F601      		movw r30,r12
 2978 01a2 F170      		andi r31,hi8(511)
 2979 01a4 F296      		adiw r30,50
 2980 01a6 EC0F      		add r30,r28
 2981 01a8 FD1F      		adc r31,r29
 2982 01aa 8081      		ld r24,Z
 2983 01ac 9181      		ldd r25,Z+1
 2984 01ae A281      		ldd r26,Z+2
 2985 01b0 B381      		ldd r27,Z+3
 2986 01b2 8070      		andi r24,lo8(-268435456)
 2987 01b4 9070      		andi r25,hi8(-268435456)
 2988 01b6 A070      		andi r26,hlo8(-268435456)
 2989 01b8 B07F      		andi r27,hhi8(-268435456)
 2990 01ba 8829      		or r24,r8
 2991 01bc 9929      		or r25,r9
 2992 01be AA29      		or r26,r10
 2993 01c0 BB29      		or r27,r11
 2994 01c2 8083      		st Z,r24
 2995 01c4 9183      		std Z+1,r25
 2996 01c6 A283      		std Z+2,r26
 2997 01c8 B383      		std Z+3,r27
 2998               	.L160:
 2999 01ca 81E0      		ldi r24,lo8(1)
 3000 01cc 8C83      		std Y+4,r24
 3001 01ce 00C0      		rjmp .L165
 3002               	.L155:
 3003 01d0 22E0      		ldi r18,lo8(2)
 3004               	.L165:
 3005 01d2 822F      		mov r24,r18
 3006               	/* epilogue start */
 3007 01d4 DF91      		pop r29
 3008 01d6 CF91      		pop r28
 3009 01d8 1F91      		pop r17
 3010 01da 0F91      		pop r16
 3011 01dc FF90      		pop r15
 3012 01de EF90      		pop r14
 3013 01e0 DF90      		pop r13
 3014 01e2 CF90      		pop r12
 3015 01e4 BF90      		pop r11
 3016 01e6 AF90      		pop r10
 3017 01e8 9F90      		pop r9
 3018 01ea 8F90      		pop r8
 3019 01ec 0895      		ret
 3021               		.section	.text.get_fat,"ax",@progbits
 3022               	.global	get_fat
 3024               	get_fat:
 3025 0000 BF92      		push r11
 3026 0002 CF92      		push r12
 3027 0004 DF92      		push r13
 3028 0006 EF92      		push r14
 3029 0008 FF92      		push r15
 3030 000a 0F93      		push r16
 3031 000c 1F93      		push r17
 3032 000e CF93      		push r28
 3033 0010 DF93      		push r29
 3034               	/* prologue: function */
 3035               	/* frame size = 0 */
 3036 0012 6C01      		movw r12,r24
 3037 0014 7A01      		movw r14,r20
 3038 0016 8B01      		movw r16,r22
 3039 0018 4230      		cpi r20,lo8(2)
 3040 001a 5105      		cpc r21,__zero_reg__
 3041 001c 6105      		cpc r22,__zero_reg__
 3042 001e 7105      		cpc r23,__zero_reg__
 3043 0020 00F4      		brsh .+2
 3044 0022 00C0      		rjmp .L168
 3045 0024 F601      		movw r30,r12
 3046 0026 828D      		ldd r24,Z+26
 3047 0028 938D      		ldd r25,Z+27
 3048 002a A48D      		ldd r26,Z+28
 3049 002c B58D      		ldd r27,Z+29
 3050 002e 4817      		cp r20,r24
 3051 0030 5907      		cpc r21,r25
 3052 0032 6A07      		cpc r22,r26
 3053 0034 7B07      		cpc r23,r27
 3054 0036 00F0      		brlo .+2
 3055 0038 00C0      		rjmp .L168
 3056 003a 8081      		ld r24,Z
 3057 003c 8230      		cpi r24,lo8(2)
 3058 003e 01F4      		brne .+2
 3059 0040 00C0      		rjmp .L171
 3060 0042 8330      		cpi r24,lo8(3)
 3061 0044 01F4      		brne .+2
 3062 0046 00C0      		rjmp .L172
 3063 0048 8130      		cpi r24,lo8(1)
 3064 004a 01F0      		breq .+2
 3065 004c 00C0      		rjmp .L169
 3066 004e EA01      		movw r28,r20
 3067 0050 D695      		lsr r29
 3068 0052 C795      		ror r28
 3069 0054 C40F      		add r28,r20
 3070 0056 D51F      		adc r29,r21
 3071 0058 AE01      		movw r20,r28
 3072 005a 452F      		mov r20,r21
 3073 005c 5527      		clr r21
 3074 005e 4695      		lsr r20
 3075 0060 60E0      		ldi r22,lo8(0)
 3076 0062 70E0      		ldi r23,hi8(0)
 3077 0064 F601      		movw r30,r12
 3078 0066 82A1      		ldd r24,Z+34
 3079 0068 93A1      		ldd r25,Z+35
 3080 006a A4A1      		ldd r26,Z+36
 3081 006c B5A1      		ldd r27,Z+37
 3082 006e 480F      		add r20,r24
 3083 0070 591F      		adc r21,r25
 3084 0072 6A1F      		adc r22,r26
 3085 0074 7B1F      		adc r23,r27
 3086 0076 C601      		movw r24,r12
 3087 0078 0E94 0000 		call move_window
 3088 007c 8823      		tst r24
 3089 007e 01F0      		breq .+2
 3090 0080 00C0      		rjmp .L169
 3091 0082 FE01      		movw r30,r28
 3092 0084 F170      		andi r31,hi8(511)
 3093 0086 EC0D      		add r30,r12
 3094 0088 FD1D      		adc r31,r13
 3095 008a B2A8      		ldd r11,Z+50
 3096 008c 2196      		adiw r28,1
 3097 008e AE01      		movw r20,r28
 3098 0090 452F      		mov r20,r21
 3099 0092 5527      		clr r21
 3100 0094 4695      		lsr r20
 3101 0096 60E0      		ldi r22,lo8(0)
 3102 0098 70E0      		ldi r23,hi8(0)
 3103 009a F601      		movw r30,r12
 3104 009c 82A1      		ldd r24,Z+34
 3105 009e 93A1      		ldd r25,Z+35
 3106 00a0 A4A1      		ldd r26,Z+36
 3107 00a2 B5A1      		ldd r27,Z+37
 3108 00a4 480F      		add r20,r24
 3109 00a6 591F      		adc r21,r25
 3110 00a8 6A1F      		adc r22,r26
 3111 00aa 7B1F      		adc r23,r27
 3112 00ac C601      		movw r24,r12
 3113 00ae 0E94 0000 		call move_window
 3114 00b2 8823      		tst r24
 3115 00b4 01F0      		breq .+2
 3116 00b6 00C0      		rjmp .L169
 3117 00b8 6B2D      		mov r22,r11
 3118 00ba 70E0      		ldi r23,lo8(0)
 3119 00bc D170      		andi r29,hi8(511)
 3120 00be CC0D      		add r28,r12
 3121 00c0 DD1D      		adc r29,r13
 3122 00c2 9AA9      		ldd r25,Y+50
 3123 00c4 80E0      		ldi r24,lo8(0)
 3124 00c6 682B      		or r22,r24
 3125 00c8 792B      		or r23,r25
 3126 00ca C701      		movw r24,r14
 3127 00cc 8170      		andi r24,lo8(1)
 3128 00ce 9070      		andi r25,hi8(1)
 3129 00d0 892B      		or r24,r25
 3130 00d2 01F0      		breq .L173
 3131 00d4 B4E0      		ldi r27,4
 3132 00d6 7695      	1:	lsr r23
 3133 00d8 6795      		ror r22
 3134 00da BA95      		dec r27
 3135 00dc 01F4      		brne 1b
 3136 00de 9B01      		movw r18,r22
 3137 00e0 00C0      		rjmp .L176
 3138               	.L173:
 3139 00e2 9B01      		movw r18,r22
 3140 00e4 40E0      		ldi r20,lo8(0)
 3141 00e6 50E0      		ldi r21,hi8(0)
 3142 00e8 3F70      		andi r19,hi8(4095)
 3143 00ea 4070      		andi r20,hlo8(4095)
 3144 00ec 5070      		andi r21,hhi8(4095)
 3145 00ee 00C0      		rjmp .L174
 3146               	.L171:
 3147 00f0 452F      		mov r20,r21
 3148 00f2 562F      		mov r21,r22
 3149 00f4 672F      		mov r22,r23
 3150 00f6 7727      		clr r23
 3151 00f8 F601      		movw r30,r12
 3152 00fa 82A1      		ldd r24,Z+34
 3153 00fc 93A1      		ldd r25,Z+35
 3154 00fe A4A1      		ldd r26,Z+36
 3155 0100 B5A1      		ldd r27,Z+37
 3156 0102 480F      		add r20,r24
 3157 0104 591F      		adc r21,r25
 3158 0106 6A1F      		adc r22,r26
 3159 0108 7B1F      		adc r23,r27
 3160 010a C601      		movw r24,r12
 3161 010c 0E94 0000 		call move_window
 3162 0110 8823      		tst r24
 3163 0112 01F4      		brne .L169
 3164 0114 EE0C      		lsl r14
 3165 0116 FF1C      		rol r15
 3166 0118 001F      		rol r16
 3167 011a 111F      		rol r17
 3168 011c F701      		movw r30,r14
 3169 011e F170      		andi r31,hi8(511)
 3170 0120 EC0D      		add r30,r12
 3171 0122 FD1D      		adc r31,r13
 3172 0124 82A9      		ldd r24,Z+50
 3173 0126 93A9      		ldd r25,Z+51
 3174 0128 9C01      		movw r18,r24
 3175               	.L176:
 3176 012a 40E0      		ldi r20,lo8(0)
 3177 012c 50E0      		ldi r21,hi8(0)
 3178 012e 00C0      		rjmp .L174
 3179               	.L172:
 3180 0130 E7E0      		ldi r30,7
 3181 0132 7695      	1:	lsr r23
 3182 0134 6795      		ror r22
 3183 0136 5795      		ror r21
 3184 0138 4795      		ror r20
 3185 013a EA95      		dec r30
 3186 013c 01F4      		brne 1b
 3187 013e F601      		movw r30,r12
 3188 0140 82A1      		ldd r24,Z+34
 3189 0142 93A1      		ldd r25,Z+35
 3190 0144 A4A1      		ldd r26,Z+36
 3191 0146 B5A1      		ldd r27,Z+37
 3192 0148 480F      		add r20,r24
 3193 014a 591F      		adc r21,r25
 3194 014c 6A1F      		adc r22,r26
 3195 014e 7B1F      		adc r23,r27
 3196 0150 C601      		movw r24,r12
 3197 0152 0E94 0000 		call move_window
 3198 0156 8823      		tst r24
 3199 0158 01F4      		brne .L169
 3200 015a 42E0      		ldi r20,2
 3201 015c EE0C      	1:	lsl r14
 3202 015e FF1C      		rol r15
 3203 0160 001F      		rol r16
 3204 0162 111F      		rol r17
 3205 0164 4A95      		dec r20
 3206 0166 01F4      		brne 1b
 3207 0168 F701      		movw r30,r14
 3208 016a F170      		andi r31,hi8(511)
 3209 016c EC0D      		add r30,r12
 3210 016e FD1D      		adc r31,r13
 3211 0170 22A9      		ldd r18,Z+50
 3212 0172 33A9      		ldd r19,Z+51
 3213 0174 44A9      		ldd r20,Z+52
 3214 0176 55A9      		ldd r21,Z+53
 3215 0178 5F70      		andi r21,hhi8(268435455)
 3216 017a 00C0      		rjmp .L174
 3217               	.L168:
 3218 017c 21E0      		ldi r18,lo8(1)
 3219 017e 30E0      		ldi r19,hi8(1)
 3220 0180 40E0      		ldi r20,hlo8(1)
 3221 0182 50E0      		ldi r21,hhi8(1)
 3222 0184 00C0      		rjmp .L174
 3223               	.L169:
 3224 0186 2FEF      		ldi r18,lo8(-1)
 3225 0188 3FEF      		ldi r19,hi8(-1)
 3226 018a 4FEF      		ldi r20,hlo8(-1)
 3227 018c 5FEF      		ldi r21,hhi8(-1)
 3228               	.L174:
 3229 018e B901      		movw r22,r18
 3230 0190 CA01      		movw r24,r20
 3231               	/* epilogue start */
 3232 0192 DF91      		pop r29
 3233 0194 CF91      		pop r28
 3234 0196 1F91      		pop r17
 3235 0198 0F91      		pop r16
 3236 019a FF90      		pop r15
 3237 019c EF90      		pop r14
 3238 019e DF90      		pop r13
 3239 01a0 CF90      		pop r12
 3240 01a2 BF90      		pop r11
 3241 01a4 0895      		ret
 3243               		.section	.text.dir_sdi,"ax",@progbits
 3245               	dir_sdi:
 3246 0000 AF92      		push r10
 3247 0002 BF92      		push r11
 3248 0004 CF92      		push r12
 3249 0006 DF92      		push r13
 3250 0008 EF92      		push r14
 3251 000a FF92      		push r15
 3252 000c 0F93      		push r16
 3253 000e 1F93      		push r17
 3254 0010 CF93      		push r28
 3255 0012 DF93      		push r29
 3256               	/* prologue: function */
 3257               	/* frame size = 0 */
 3258 0014 5C01      		movw r10,r24
 3259 0016 6B01      		movw r12,r22
 3260 0018 DC01      		movw r26,r24
 3261 001a 1596      		adiw r26,4+1
 3262 001c 7C93      		st X,r23
 3263 001e 6E93      		st -X,r22
 3264 0020 1497      		sbiw r26,4
 3265 0022 1696      		adiw r26,6
 3266 0024 4D91      		ld r20,X+
 3267 0026 5D91      		ld r21,X+
 3268 0028 6D91      		ld r22,X+
 3269 002a 7C91      		ld r23,X
 3270 002c 1997      		sbiw r26,6+3
 3271 002e 4130      		cpi r20,lo8(1)
 3272 0030 5105      		cpc r21,__zero_reg__
 3273 0032 6105      		cpc r22,__zero_reg__
 3274 0034 7105      		cpc r23,__zero_reg__
 3275 0036 01F4      		brne .+2
 3276 0038 00C0      		rjmp .L178
 3277 003a ED91      		ld r30,X+
 3278 003c FC91      		ld r31,X
 3279 003e 828D      		ldd r24,Z+26
 3280 0040 938D      		ldd r25,Z+27
 3281 0042 A48D      		ldd r26,Z+28
 3282 0044 B58D      		ldd r27,Z+29
 3283 0046 4817      		cp r20,r24
 3284 0048 5907      		cpc r21,r25
 3285 004a 6A07      		cpc r22,r26
 3286 004c 7B07      		cpc r23,r27
 3287 004e 00F0      		brlo .+2
 3288 0050 00C0      		rjmp .L178
 3289 0052 4115      		cp r20,__zero_reg__
 3290 0054 5105      		cpc r21,__zero_reg__
 3291 0056 6105      		cpc r22,__zero_reg__
 3292 0058 7105      		cpc r23,__zero_reg__
 3293 005a 01F4      		brne .L179
 3294 005c 8081      		ld r24,Z
 3295 005e 8330      		cpi r24,lo8(3)
 3296 0060 01F4      		brne .L180
 3297 0062 46A1      		ldd r20,Z+38
 3298 0064 57A1      		ldd r21,Z+39
 3299 0066 60A5      		ldd r22,Z+40
 3300 0068 71A5      		ldd r23,Z+41
 3301 006a 4115      		cp r20,__zero_reg__
 3302 006c 5105      		cpc r21,__zero_reg__
 3303 006e 6105      		cpc r22,__zero_reg__
 3304 0070 7105      		cpc r23,__zero_reg__
 3305 0072 01F4      		brne .L179
 3306               	.L180:
 3307 0074 F501      		movw r30,r10
 3308 0076 1286      		std Z+10,__zero_reg__
 3309 0078 1386      		std Z+11,__zero_reg__
 3310 007a 1486      		std Z+12,__zero_reg__
 3311 007c 1586      		std Z+13,__zero_reg__
 3312 007e 0190      		ld __tmp_reg__,Z+
 3313 0080 F081      		ld r31,Z
 3314 0082 E02D      		mov r30,__tmp_reg__
 3315 0084 8085      		ldd r24,Z+8
 3316 0086 9185      		ldd r25,Z+9
 3317 0088 C816      		cp r12,r24
 3318 008a D906      		cpc r13,r25
 3319 008c 00F0      		brlo .+2
 3320 008e 00C0      		rjmp .L178
 3321 0090 C601      		movw r24,r12
 3322 0092 A4E0      		ldi r26,4
 3323 0094 9695      	1:	lsr r25
 3324 0096 8795      		ror r24
 3325 0098 AA95      		dec r26
 3326 009a 01F4      		brne 1b
 3327 009c A0E0      		ldi r26,lo8(0)
 3328 009e B0E0      		ldi r27,hi8(0)
 3329 00a0 26A1      		ldd r18,Z+38
 3330 00a2 37A1      		ldd r19,Z+39
 3331 00a4 40A5      		ldd r20,Z+40
 3332 00a6 51A5      		ldd r21,Z+41
 3333 00a8 820F      		add r24,r18
 3334 00aa 931F      		adc r25,r19
 3335 00ac A41F      		adc r26,r20
 3336 00ae B51F      		adc r27,r21
 3337 00b0 F501      		movw r30,r10
 3338 00b2 8687      		std Z+14,r24
 3339 00b4 9787      		std Z+15,r25
 3340 00b6 A08B      		std Z+16,r26
 3341 00b8 B18B      		std Z+17,r27
 3342 00ba 00C0      		rjmp .L181
 3343               	.L179:
 3344 00bc 8281      		ldd r24,Z+2
 3345 00be 082F      		mov r16,r24
 3346 00c0 10E0      		ldi r17,lo8(0)
 3347 00c2 F4E0      		ldi r31,4
 3348 00c4 000F      	1:	lsl r16
 3349 00c6 111F      		rol r17
 3350 00c8 FA95      		dec r31
 3351 00ca 01F4      		brne 1b
 3352 00cc 00C0      		rjmp .L182
 3353               	.L185:
 3354 00ce CE01      		movw r24,r28
 3355 00d0 0E94 0000 		call get_fat
 3356 00d4 AB01      		movw r20,r22
 3357 00d6 BC01      		movw r22,r24
 3358 00d8 4F3F      		cpi r20,lo8(-1)
 3359 00da FFEF      		ldi r31,hi8(-1)
 3360 00dc 5F07      		cpc r21,r31
 3361 00de FFEF      		ldi r31,hlo8(-1)
 3362 00e0 6F07      		cpc r22,r31
 3363 00e2 FFEF      		ldi r31,hhi8(-1)
 3364 00e4 7F07      		cpc r23,r31
 3365 00e6 01F4      		brne .L183
 3366 00e8 81E0      		ldi r24,lo8(1)
 3367 00ea 00C0      		rjmp .L184
 3368               	.L183:
 3369 00ec 4230      		cpi r20,lo8(2)
 3370 00ee 5105      		cpc r21,__zero_reg__
 3371 00f0 6105      		cpc r22,__zero_reg__
 3372 00f2 7105      		cpc r23,__zero_reg__
 3373 00f4 00F4      		brsh .+2
 3374 00f6 00C0      		rjmp .L178
 3375 00f8 D501      		movw r26,r10
 3376 00fa ED91      		ld r30,X+
 3377 00fc FC91      		ld r31,X
 3378 00fe 828D      		ldd r24,Z+26
 3379 0100 938D      		ldd r25,Z+27
 3380 0102 A48D      		ldd r26,Z+28
 3381 0104 B58D      		ldd r27,Z+29
 3382 0106 4817      		cp r20,r24
 3383 0108 5907      		cpc r21,r25
 3384 010a 6A07      		cpc r22,r26
 3385 010c 7B07      		cpc r23,r27
 3386 010e 00F0      		brlo .+2
 3387 0110 00C0      		rjmp .L178
 3388 0112 C01A      		sub r12,r16
 3389 0114 D10A      		sbc r13,r17
 3390               	.L182:
 3391 0116 F501      		movw r30,r10
 3392 0118 C081      		ld r28,Z
 3393 011a D181      		ldd r29,Z+1
 3394 011c C016      		cp r12,r16
 3395 011e D106      		cpc r13,r17
 3396 0120 00F4      		brsh .L185
 3397 0122 D501      		movw r26,r10
 3398 0124 1A96      		adiw r26,10
 3399 0126 4D93      		st X+,r20
 3400 0128 5D93      		st X+,r21
 3401 012a 6D93      		st X+,r22
 3402 012c 7C93      		st X,r23
 3403 012e 1D97      		sbiw r26,10+3
 3404 0130 EEEF      		ldi r30,lo8(-2)
 3405 0132 EE2E      		mov r14,r30
 3406 0134 EFEF      		ldi r30,hi8(-2)
 3407 0136 FE2E      		mov r15,r30
 3408 0138 EFEF      		ldi r30,hlo8(-2)
 3409 013a 0E2F      		mov r16,r30
 3410 013c EFEF      		ldi r30,hhi8(-2)
 3411 013e 1E2F      		mov r17,r30
 3412 0140 E40E      		add r14,r20
 3413 0142 F51E      		adc r15,r21
 3414 0144 061F      		adc r16,r22
 3415 0146 171F      		adc r17,r23
 3416 0148 8A8D      		ldd r24,Y+26
 3417 014a 9B8D      		ldd r25,Y+27
 3418 014c AC8D      		ldd r26,Y+28
 3419 014e BD8D      		ldd r27,Y+29
 3420 0150 0297      		sbiw r24,2
 3421 0152 A109      		sbc r26,__zero_reg__
 3422 0154 B109      		sbc r27,__zero_reg__
 3423 0156 E816      		cp r14,r24
 3424 0158 F906      		cpc r15,r25
 3425 015a 0A07      		cpc r16,r26
 3426 015c 1B07      		cpc r17,r27
 3427 015e 00F0      		brlo .L186
 3428 0160 20E0      		ldi r18,lo8(0)
 3429 0162 30E0      		ldi r19,hi8(0)
 3430 0164 40E0      		ldi r20,hlo8(0)
 3431 0166 50E0      		ldi r21,hhi8(0)
 3432 0168 00C0      		rjmp .L187
 3433               	.L186:
 3434 016a 2A81      		ldd r18,Y+2
 3435 016c 30E0      		ldi r19,lo8(0)
 3436 016e 40E0      		ldi r20,lo8(0)
 3437 0170 50E0      		ldi r21,hi8(0)
 3438 0172 C801      		movw r24,r16
 3439 0174 B701      		movw r22,r14
 3440 0176 0E94 0000 		call __mulsi3
 3441 017a 9B01      		movw r18,r22
 3442 017c AC01      		movw r20,r24
 3443 017e 8AA5      		ldd r24,Y+42
 3444 0180 9BA5      		ldd r25,Y+43
 3445 0182 ACA5      		ldd r26,Y+44
 3446 0184 BDA5      		ldd r27,Y+45
 3447 0186 280F      		add r18,r24
 3448 0188 391F      		adc r19,r25
 3449 018a 4A1F      		adc r20,r26
 3450 018c 5B1F      		adc r21,r27
 3451               	.L187:
 3452 018e C601      		movw r24,r12
 3453 0190 64E0      		ldi r22,4
 3454 0192 9695      	1:	lsr r25
 3455 0194 8795      		ror r24
 3456 0196 6A95      		dec r22
 3457 0198 01F4      		brne 1b
 3458 019a A0E0      		ldi r26,lo8(0)
 3459 019c B0E0      		ldi r27,hi8(0)
 3460 019e 280F      		add r18,r24
 3461 01a0 391F      		adc r19,r25
 3462 01a2 4A1F      		adc r20,r26
 3463 01a4 5B1F      		adc r21,r27
 3464 01a6 F501      		movw r30,r10
 3465 01a8 2687      		std Z+14,r18
 3466 01aa 3787      		std Z+15,r19
 3467 01ac 408B      		std Z+16,r20
 3468 01ae 518B      		std Z+17,r21
 3469               	.L181:
 3470 01b0 FFE0      		ldi r31,lo8(15)
 3471 01b2 CF22      		and r12,r31
 3472 01b4 DD24      		clr r13
 3473 01b6 35E0      		ldi r19,5
 3474 01b8 CC0C      	1:	lsl r12
 3475 01ba DD1C      		rol r13
 3476 01bc 3A95      		dec r19
 3477 01be 01F4      		brne 1b
 3478 01c0 82E3      		ldi r24,lo8(50)
 3479 01c2 90E0      		ldi r25,hi8(50)
 3480 01c4 C80E      		add r12,r24
 3481 01c6 D91E      		adc r13,r25
 3482 01c8 D501      		movw r26,r10
 3483 01ca 8D91      		ld r24,X+
 3484 01cc 9C91      		ld r25,X
 3485 01ce 1197      		sbiw r26,1
 3486 01d0 8C0D      		add r24,r12
 3487 01d2 9D1D      		adc r25,r13
 3488 01d4 5396      		adiw r26,18+1
 3489 01d6 9C93      		st X,r25
 3490 01d8 8E93      		st -X,r24
 3491 01da 5297      		sbiw r26,18
 3492 01dc 80E0      		ldi r24,lo8(0)
 3493 01de 00C0      		rjmp .L184
 3494               	.L178:
 3495 01e0 82E0      		ldi r24,lo8(2)
 3496               	.L184:
 3497               	/* epilogue start */
 3498 01e2 DF91      		pop r29
 3499 01e4 CF91      		pop r28
 3500 01e6 1F91      		pop r17
 3501 01e8 0F91      		pop r16
 3502 01ea FF90      		pop r15
 3503 01ec EF90      		pop r14
 3504 01ee DF90      		pop r13
 3505 01f0 CF90      		pop r12
 3506 01f2 BF90      		pop r11
 3507 01f4 AF90      		pop r10
 3508 01f6 0895      		ret
 3510               		.section	.text.create_chain,"ax",@progbits
 3512               	create_chain:
 3513 0000 4F92      		push r4
 3514 0002 5F92      		push r5
 3515 0004 6F92      		push r6
 3516 0006 7F92      		push r7
 3517 0008 8F92      		push r8
 3518 000a 9F92      		push r9
 3519 000c AF92      		push r10
 3520 000e BF92      		push r11
 3521 0010 CF92      		push r12
 3522 0012 DF92      		push r13
 3523 0014 EF92      		push r14
 3524 0016 FF92      		push r15
 3525 0018 0F93      		push r16
 3526 001a 1F93      		push r17
 3527 001c CF93      		push r28
 3528 001e DF93      		push r29
 3529               	/* prologue: function */
 3530               	/* frame size = 0 */
 3531 0020 EC01      		movw r28,r24
 3532 0022 2A01      		movw r4,r20
 3533 0024 3B01      		movw r6,r22
 3534 0026 4115      		cp r20,__zero_reg__
 3535 0028 5105      		cpc r21,__zero_reg__
 3536 002a 6105      		cpc r22,__zero_reg__
 3537 002c 7105      		cpc r23,__zero_reg__
 3538 002e 01F4      		brne .L190
 3539 0030 8A84      		ldd r8,Y+10
 3540 0032 9B84      		ldd r9,Y+11
 3541 0034 AC84      		ldd r10,Y+12
 3542 0036 BD84      		ldd r11,Y+13
 3543 0038 8114      		cp r8,__zero_reg__
 3544 003a 9104      		cpc r9,__zero_reg__
 3545 003c A104      		cpc r10,__zero_reg__
 3546 003e B104      		cpc r11,__zero_reg__
 3547 0040 01F0      		breq .L191
 3548 0042 8A8D      		ldd r24,Y+26
 3549 0044 9B8D      		ldd r25,Y+27
 3550 0046 AC8D      		ldd r26,Y+28
 3551 0048 BD8D      		ldd r27,Y+29
 3552 004a 8816      		cp r8,r24
 3553 004c 9906      		cpc r9,r25
 3554 004e AA06      		cpc r10,r26
 3555 0050 BB06      		cpc r11,r27
 3556 0052 00F4      		brsh .L191
 3557 0054 00C0      		rjmp .L192
 3558               	.L190:
 3559 0056 0E94 0000 		call get_fat
 3560 005a 9B01      		movw r18,r22
 3561 005c AC01      		movw r20,r24
 3562 005e 6230      		cpi r22,lo8(2)
 3563 0060 7105      		cpc r23,__zero_reg__
 3564 0062 8105      		cpc r24,__zero_reg__
 3565 0064 9105      		cpc r25,__zero_reg__
 3566 0066 00F4      		brsh .L193
 3567 0068 21E0      		ldi r18,lo8(1)
 3568 006a 30E0      		ldi r19,hi8(1)
 3569 006c 40E0      		ldi r20,hlo8(1)
 3570 006e 50E0      		ldi r21,hhi8(1)
 3571 0070 00C0      		rjmp .L194
 3572               	.L193:
 3573 0072 8A8D      		ldd r24,Y+26
 3574 0074 9B8D      		ldd r25,Y+27
 3575 0076 AC8D      		ldd r26,Y+28
 3576 0078 BD8D      		ldd r27,Y+29
 3577 007a 2817      		cp r18,r24
 3578 007c 3907      		cpc r19,r25
 3579 007e 4A07      		cpc r20,r26
 3580 0080 5B07      		cpc r21,r27
 3581 0082 00F4      		brsh .+2
 3582 0084 00C0      		rjmp .L194
 3583 0086 5301      		movw r10,r6
 3584 0088 4201      		movw r8,r4
 3585 008a 00C0      		rjmp .L192
 3586               	.L191:
 3587 008c 11E0      		ldi r17,lo8(1)
 3588 008e 812E      		mov r8,r17
 3589 0090 912C      		mov r9,__zero_reg__
 3590 0092 A12C      		mov r10,__zero_reg__
 3591 0094 B12C      		mov r11,__zero_reg__
 3592               	.L192:
 3593 0096 7501      		movw r14,r10
 3594 0098 6401      		movw r12,r8
 3595               	.L198:
 3596 009a 0894      		sec
 3597 009c C11C      		adc r12,__zero_reg__
 3598 009e D11C      		adc r13,__zero_reg__
 3599 00a0 E11C      		adc r14,__zero_reg__
 3600 00a2 F11C      		adc r15,__zero_reg__
 3601 00a4 8A8D      		ldd r24,Y+26
 3602 00a6 9B8D      		ldd r25,Y+27
 3603 00a8 AC8D      		ldd r26,Y+28
 3604 00aa BD8D      		ldd r27,Y+29
 3605 00ac C816      		cp r12,r24
 3606 00ae D906      		cpc r13,r25
 3607 00b0 EA06      		cpc r14,r26
 3608 00b2 FB06      		cpc r15,r27
 3609 00b4 00F0      		brlo .L195
 3610 00b6 22E0      		ldi r18,lo8(2)
 3611 00b8 8216      		cp r8,r18
 3612 00ba 9104      		cpc r9,__zero_reg__
 3613 00bc A104      		cpc r10,__zero_reg__
 3614 00be B104      		cpc r11,__zero_reg__
 3615 00c0 00F4      		brsh .+2
 3616 00c2 00C0      		rjmp .L196
 3617 00c4 B2E0      		ldi r27,lo8(2)
 3618 00c6 CB2E      		mov r12,r27
 3619 00c8 D12C      		mov r13,__zero_reg__
 3620 00ca E12C      		mov r14,__zero_reg__
 3621 00cc F12C      		mov r15,__zero_reg__
 3622               	.L195:
 3623 00ce CE01      		movw r24,r28
 3624 00d0 B701      		movw r22,r14
 3625 00d2 A601      		movw r20,r12
 3626 00d4 0E94 0000 		call get_fat
 3627 00d8 9B01      		movw r18,r22
 3628 00da AC01      		movw r20,r24
 3629 00dc 6115      		cp r22,__zero_reg__
 3630 00de 7105      		cpc r23,__zero_reg__
 3631 00e0 8105      		cpc r24,__zero_reg__
 3632 00e2 9105      		cpc r25,__zero_reg__
 3633 00e4 01F0      		breq .L197
 3634 00e6 2F3F      		cpi r18,lo8(-1)
 3635 00e8 8FEF      		ldi r24,hi8(-1)
 3636 00ea 3807      		cpc r19,r24
 3637 00ec 8FEF      		ldi r24,hlo8(-1)
 3638 00ee 4807      		cpc r20,r24
 3639 00f0 8FEF      		ldi r24,hhi8(-1)
 3640 00f2 5807      		cpc r21,r24
 3641 00f4 01F4      		brne .+2
 3642 00f6 00C0      		rjmp .L194
 3643 00f8 2130      		cpi r18,lo8(1)
 3644 00fa 3105      		cpc r19,__zero_reg__
 3645 00fc 4105      		cpc r20,__zero_reg__
 3646 00fe 5105      		cpc r21,__zero_reg__
 3647 0100 01F4      		brne .+2
 3648 0102 00C0      		rjmp .L194
 3649 0104 C814      		cp r12,r8
 3650 0106 D904      		cpc r13,r9
 3651 0108 EA04      		cpc r14,r10
 3652 010a FB04      		cpc r15,r11
 3653 010c 01F4      		brne .L198
 3654 010e 00C0      		rjmp .L196
 3655               	.L197:
 3656 0110 BC2C      		mov r11,r12
 3657 0112 AD2C      		mov r10,r13
 3658 0114 9E2C      		mov r9,r14
 3659 0116 8F2C      		mov r8,r15
 3660 0118 CE01      		movw r24,r28
 3661 011a A601      		movw r20,r12
 3662 011c B701      		movw r22,r14
 3663 011e 0FEF      		ldi r16,lo8(268435455)
 3664 0120 1FEF      		ldi r17,hi8(268435455)
 3665 0122 2FEF      		ldi r18,hlo8(268435455)
 3666 0124 3FE0      		ldi r19,hhi8(268435455)
 3667 0126 0E94 0000 		call put_fat
 3668 012a 8823      		tst r24
 3669 012c 01F4      		brne .L199
 3670 012e 4114      		cp r4,__zero_reg__
 3671 0130 5104      		cpc r5,__zero_reg__
 3672 0132 6104      		cpc r6,__zero_reg__
 3673 0134 7104      		cpc r7,__zero_reg__
 3674 0136 01F0      		breq .L200
 3675 0138 CE01      		movw r24,r28
 3676 013a B301      		movw r22,r6
 3677 013c A201      		movw r20,r4
 3678 013e 8601      		movw r16,r12
 3679 0140 9701      		movw r18,r14
 3680 0142 0E94 0000 		call put_fat
 3681 0146 8823      		tst r24
 3682 0148 01F4      		brne .L199
 3683               	.L200:
 3684 014a BA86      		std Y+10,r11
 3685 014c AB86      		std Y+11,r10
 3686 014e 9C86      		std Y+12,r9
 3687 0150 8D86      		std Y+13,r8
 3688 0152 8E85      		ldd r24,Y+14
 3689 0154 9F85      		ldd r25,Y+15
 3690 0156 A889      		ldd r26,Y+16
 3691 0158 B989      		ldd r27,Y+17
 3692 015a 8F3F      		cpi r24,lo8(-1)
 3693 015c 2FEF      		ldi r18,hi8(-1)
 3694 015e 9207      		cpc r25,r18
 3695 0160 2FEF      		ldi r18,hlo8(-1)
 3696 0162 A207      		cpc r26,r18
 3697 0164 2FEF      		ldi r18,hhi8(-1)
 3698 0166 B207      		cpc r27,r18
 3699 0168 01F0      		breq .L203
 3700               	.L201:
 3701 016a 0197      		sbiw r24,1
 3702 016c A109      		sbc r26,__zero_reg__
 3703 016e B109      		sbc r27,__zero_reg__
 3704 0170 8E87      		std Y+14,r24
 3705 0172 9F87      		std Y+15,r25
 3706 0174 A88B      		std Y+16,r26
 3707 0176 B98B      		std Y+17,r27
 3708 0178 81E0      		ldi r24,lo8(1)
 3709 017a 8D83      		std Y+5,r24
 3710               	.L203:
 3711 017c A701      		movw r20,r14
 3712 017e 9601      		movw r18,r12
 3713 0180 00C0      		rjmp .L194
 3714               	.L196:
 3715 0182 20E0      		ldi r18,lo8(0)
 3716 0184 30E0      		ldi r19,hi8(0)
 3717 0186 40E0      		ldi r20,hlo8(0)
 3718 0188 50E0      		ldi r21,hhi8(0)
 3719 018a 00C0      		rjmp .L194
 3720               	.L199:
 3721 018c 2FEF      		ldi r18,lo8(-1)
 3722 018e 3FEF      		ldi r19,hi8(-1)
 3723 0190 4FEF      		ldi r20,hlo8(-1)
 3724 0192 5FEF      		ldi r21,hhi8(-1)
 3725               	.L194:
 3726 0194 B901      		movw r22,r18
 3727 0196 CA01      		movw r24,r20
 3728               	/* epilogue start */
 3729 0198 DF91      		pop r29
 3730 019a CF91      		pop r28
 3731 019c 1F91      		pop r17
 3732 019e 0F91      		pop r16
 3733 01a0 FF90      		pop r15
 3734 01a2 EF90      		pop r14
 3735 01a4 DF90      		pop r13
 3736 01a6 CF90      		pop r12
 3737 01a8 BF90      		pop r11
 3738 01aa AF90      		pop r10
 3739 01ac 9F90      		pop r9
 3740 01ae 8F90      		pop r8
 3741 01b0 7F90      		pop r7
 3742 01b2 6F90      		pop r6
 3743 01b4 5F90      		pop r5
 3744 01b6 4F90      		pop r4
 3745 01b8 0895      		ret
 3747               		.section	.text.remove_chain,"ax",@progbits
 3749               	remove_chain:
 3750 0000 9F92      		push r9
 3751 0002 AF92      		push r10
 3752 0004 BF92      		push r11
 3753 0006 CF92      		push r12
 3754 0008 DF92      		push r13
 3755 000a EF92      		push r14
 3756 000c FF92      		push r15
 3757 000e 0F93      		push r16
 3758 0010 1F93      		push r17
 3759 0012 CF93      		push r28
 3760 0014 DF93      		push r29
 3761               	/* prologue: function */
 3762               	/* frame size = 0 */
 3763 0016 EC01      		movw r28,r24
 3764 0018 7A01      		movw r14,r20
 3765 001a 8B01      		movw r16,r22
 3766 001c 4230      		cpi r20,lo8(2)
 3767 001e 5105      		cpc r21,__zero_reg__
 3768 0020 6105      		cpc r22,__zero_reg__
 3769 0022 7105      		cpc r23,__zero_reg__
 3770 0024 00F4      		brsh .+2
 3771 0026 00C0      		rjmp .L205
 3772 0028 8A8D      		ldd r24,Y+26
 3773 002a 9B8D      		ldd r25,Y+27
 3774 002c AC8D      		ldd r26,Y+28
 3775 002e BD8D      		ldd r27,Y+29
 3776 0030 4817      		cp r20,r24
 3777 0032 5907      		cpc r21,r25
 3778 0034 6A07      		cpc r22,r26
 3779 0036 7B07      		cpc r23,r27
 3780 0038 00F4      		brsh .+2
 3781 003a 00C0      		rjmp .L213
 3782 003c 00C0      		rjmp .L205
 3783               	.L211:
 3784 003e CE01      		movw r24,r28
 3785 0040 B801      		movw r22,r16
 3786 0042 A701      		movw r20,r14
 3787 0044 0E94 0000 		call get_fat
 3788 0048 5B01      		movw r10,r22
 3789 004a 6C01      		movw r12,r24
 3790 004c 6115      		cp r22,__zero_reg__
 3791 004e 7105      		cpc r23,__zero_reg__
 3792 0050 8105      		cpc r24,__zero_reg__
 3793 0052 9105      		cpc r25,__zero_reg__
 3794 0054 01F4      		brne .+2
 3795 0056 00C0      		rjmp .L207
 3796 0058 81E0      		ldi r24,lo8(1)
 3797 005a A816      		cp r10,r24
 3798 005c B104      		cpc r11,__zero_reg__
 3799 005e C104      		cpc r12,__zero_reg__
 3800 0060 D104      		cpc r13,__zero_reg__
 3801 0062 01F0      		breq .L205
 3802 0064 2FEF      		ldi r18,lo8(-1)
 3803 0066 A216      		cp r10,r18
 3804 0068 2FEF      		ldi r18,hi8(-1)
 3805 006a B206      		cpc r11,r18
 3806 006c 2FEF      		ldi r18,hlo8(-1)
 3807 006e C206      		cpc r12,r18
 3808 0070 2FEF      		ldi r18,hhi8(-1)
 3809 0072 D206      		cpc r13,r18
 3810 0074 01F4      		brne .L208
 3811 0076 81E0      		ldi r24,lo8(1)
 3812 0078 00C0      		rjmp .L209
 3813               	.L208:
 3814 007a CE01      		movw r24,r28
 3815 007c B801      		movw r22,r16
 3816 007e A701      		movw r20,r14
 3817 0080 00E0      		ldi r16,lo8(0)
 3818 0082 10E0      		ldi r17,hi8(0)
 3819 0084 20E0      		ldi r18,hlo8(0)
 3820 0086 30E0      		ldi r19,hhi8(0)
 3821 0088 0E94 0000 		call put_fat
 3822 008c 8823      		tst r24
 3823 008e 01F4      		brne .L209
 3824 0090 8E85      		ldd r24,Y+14
 3825 0092 9F85      		ldd r25,Y+15
 3826 0094 A889      		ldd r26,Y+16
 3827 0096 B989      		ldd r27,Y+17
 3828 0098 8F3F      		cpi r24,lo8(-1)
 3829 009a 2FEF      		ldi r18,hi8(-1)
 3830 009c 9207      		cpc r25,r18
 3831 009e 2FEF      		ldi r18,hlo8(-1)
 3832 00a0 A207      		cpc r26,r18
 3833 00a2 2FEF      		ldi r18,hhi8(-1)
 3834 00a4 B207      		cpc r27,r18
 3835 00a6 01F0      		breq .L210
 3836 00a8 0196      		adiw r24,1
 3837 00aa A11D      		adc r26,__zero_reg__
 3838 00ac B11D      		adc r27,__zero_reg__
 3839 00ae 8E87      		std Y+14,r24
 3840 00b0 9F87      		std Y+15,r25
 3841 00b2 A88B      		std Y+16,r26
 3842 00b4 B98B      		std Y+17,r27
 3843 00b6 9D82      		std Y+5,r9
 3844               	.L210:
 3845 00b8 8601      		movw r16,r12
 3846 00ba 7501      		movw r14,r10
 3847 00bc 00C0      		rjmp .L214
 3848               	.L213:
 3849 00be 9924      		clr r9
 3850 00c0 9394      		inc r9
 3851               	.L214:
 3852 00c2 8A8D      		ldd r24,Y+26
 3853 00c4 9B8D      		ldd r25,Y+27
 3854 00c6 AC8D      		ldd r26,Y+28
 3855 00c8 BD8D      		ldd r27,Y+29
 3856 00ca E816      		cp r14,r24
 3857 00cc F906      		cpc r15,r25
 3858 00ce 0A07      		cpc r16,r26
 3859 00d0 1B07      		cpc r17,r27
 3860 00d2 00F4      		brsh .+2
 3861 00d4 00C0      		rjmp .L211
 3862 00d6 00C0      		rjmp .L207
 3863               	.L205:
 3864 00d8 82E0      		ldi r24,lo8(2)
 3865 00da 00C0      		rjmp .L209
 3866               	.L207:
 3867 00dc 80E0      		ldi r24,lo8(0)
 3868               	.L209:
 3869               	/* epilogue start */
 3870 00de DF91      		pop r29
 3871 00e0 CF91      		pop r28
 3872 00e2 1F91      		pop r17
 3873 00e4 0F91      		pop r16
 3874 00e6 FF90      		pop r15
 3875 00e8 EF90      		pop r14
 3876 00ea DF90      		pop r13
 3877 00ec CF90      		pop r12
 3878 00ee BF90      		pop r11
 3879 00f0 AF90      		pop r10
 3880 00f2 9F90      		pop r9
 3881 00f4 0895      		ret
 3883               		.section	.text.f_truncate,"ax",@progbits
 3884               	.global	f_truncate
 3886               	f_truncate:
 3887 0000 CF92      		push r12
 3888 0002 DF92      		push r13
 3889 0004 EF92      		push r14
 3890 0006 FF92      		push r15
 3891 0008 0F93      		push r16
 3892 000a 1F93      		push r17
 3893 000c CF93      		push r28
 3894 000e DF93      		push r29
 3895               	/* prologue: function */
 3896               	/* frame size = 0 */
 3897 0010 EC01      		movw r28,r24
 3898 0012 6A81      		ldd r22,Y+2
 3899 0014 7B81      		ldd r23,Y+3
 3900 0016 8881      		ld r24,Y
 3901 0018 9981      		ldd r25,Y+1
 3902 001a 0E94 0000 		call validate
 3903 001e 182F      		mov r17,r24
 3904 0020 8823      		tst r24
 3905 0022 01F0      		breq .+2
 3906 0024 00C0      		rjmp .L216
 3907 0026 6C81      		ldd r22,Y+4
 3908 0028 67FF      		sbrs r22,7
 3909 002a 00C0      		rjmp .L217
 3910 002c 12E0      		ldi r17,lo8(2)
 3911 002e 00C0      		rjmp .L216
 3912               	.L217:
 3913 0030 61FF      		sbrs r22,1
 3914 0032 00C0      		rjmp .L218
 3915 0034 2E81      		ldd r18,Y+6
 3916 0036 3F81      		ldd r19,Y+7
 3917 0038 4885      		ldd r20,Y+8
 3918 003a 5985      		ldd r21,Y+9
 3919 003c 8A85      		ldd r24,Y+10
 3920 003e 9B85      		ldd r25,Y+11
 3921 0040 AC85      		ldd r26,Y+12
 3922 0042 BD85      		ldd r27,Y+13
 3923 0044 2817      		cp r18,r24
 3924 0046 3907      		cpc r19,r25
 3925 0048 4A07      		cpc r20,r26
 3926 004a 5B07      		cpc r21,r27
 3927 004c 00F0      		brlo .+2
 3928 004e 00C0      		rjmp .L216
 3929 0050 2A87      		std Y+10,r18
 3930 0052 3B87      		std Y+11,r19
 3931 0054 4C87      		std Y+12,r20
 3932 0056 5D87      		std Y+13,r21
 3933 0058 6062      		ori r22,lo8(32)
 3934 005a 6C83      		std Y+4,r22
 3935 005c 8881      		ld r24,Y
 3936 005e 9981      		ldd r25,Y+1
 3937 0060 2115      		cp r18,__zero_reg__
 3938 0062 3105      		cpc r19,__zero_reg__
 3939 0064 4105      		cpc r20,__zero_reg__
 3940 0066 5105      		cpc r21,__zero_reg__
 3941 0068 01F4      		brne .L219
 3942 006a 4E85      		ldd r20,Y+14
 3943 006c 5F85      		ldd r21,Y+15
 3944 006e 6889      		ldd r22,Y+16
 3945 0070 7989      		ldd r23,Y+17
 3946 0072 0E94 0000 		call remove_chain
 3947 0076 182F      		mov r17,r24
 3948 0078 1E86      		std Y+14,__zero_reg__
 3949 007a 1F86      		std Y+15,__zero_reg__
 3950 007c 188A      		std Y+16,__zero_reg__
 3951 007e 198A      		std Y+17,__zero_reg__
 3952 0080 00C0      		rjmp .L220
 3953               	.L219:
 3954 0082 4A89      		ldd r20,Y+18
 3955 0084 5B89      		ldd r21,Y+19
 3956 0086 6C89      		ldd r22,Y+20
 3957 0088 7D89      		ldd r23,Y+21
 3958 008a 0E94 0000 		call get_fat
 3959 008e 6B01      		movw r12,r22
 3960 0090 7C01      		movw r14,r24
 3961 0092 8FEF      		ldi r24,lo8(-1)
 3962 0094 C816      		cp r12,r24
 3963 0096 8FEF      		ldi r24,hi8(-1)
 3964 0098 D806      		cpc r13,r24
 3965 009a 8FEF      		ldi r24,hlo8(-1)
 3966 009c E806      		cpc r14,r24
 3967 009e 8FEF      		ldi r24,hhi8(-1)
 3968 00a0 F806      		cpc r15,r24
 3969 00a2 01F4      		brne .L221
 3970 00a4 11E0      		ldi r17,lo8(1)
 3971 00a6 00C0      		rjmp .L222
 3972               	.L221:
 3973 00a8 81E0      		ldi r24,lo8(1)
 3974 00aa C816      		cp r12,r24
 3975 00ac D104      		cpc r13,__zero_reg__
 3976 00ae E104      		cpc r14,__zero_reg__
 3977 00b0 F104      		cpc r15,__zero_reg__
 3978 00b2 01F0      		breq .L223
 3979 00b4 E881      		ld r30,Y
 3980 00b6 F981      		ldd r31,Y+1
 3981 00b8 828D      		ldd r24,Z+26
 3982 00ba 938D      		ldd r25,Z+27
 3983 00bc A48D      		ldd r26,Z+28
 3984 00be B58D      		ldd r27,Z+29
 3985 00c0 C816      		cp r12,r24
 3986 00c2 D906      		cpc r13,r25
 3987 00c4 EA06      		cpc r14,r26
 3988 00c6 FB06      		cpc r15,r27
 3989 00c8 00F4      		brsh .L216
 3990 00ca 4A89      		ldd r20,Y+18
 3991 00cc 5B89      		ldd r21,Y+19
 3992 00ce 6C89      		ldd r22,Y+20
 3993 00d0 7D89      		ldd r23,Y+21
 3994 00d2 CF01      		movw r24,r30
 3995 00d4 0FEF      		ldi r16,lo8(268435455)
 3996 00d6 1FEF      		ldi r17,hi8(268435455)
 3997 00d8 2FEF      		ldi r18,hlo8(268435455)
 3998 00da 3FE0      		ldi r19,hhi8(268435455)
 3999 00dc 0E94 0000 		call put_fat
 4000 00e0 182F      		mov r17,r24
 4001 00e2 8823      		tst r24
 4002 00e4 01F4      		brne .L222
 4003 00e6 8881      		ld r24,Y
 4004 00e8 9981      		ldd r25,Y+1
 4005 00ea B701      		movw r22,r14
 4006 00ec A601      		movw r20,r12
 4007 00ee 0E94 0000 		call remove_chain
 4008 00f2 182F      		mov r17,r24
 4009               	.L220:
 4010 00f4 1123      		tst r17
 4011 00f6 01F0      		breq .L216
 4012               	.L222:
 4013 00f8 8C81      		ldd r24,Y+4
 4014 00fa 8068      		ori r24,lo8(-128)
 4015 00fc 8C83      		std Y+4,r24
 4016               	.L216:
 4017 00fe 812F      		mov r24,r17
 4018               	/* epilogue start */
 4019 0100 DF91      		pop r29
 4020 0102 CF91      		pop r28
 4021 0104 1F91      		pop r17
 4022 0106 0F91      		pop r16
 4023 0108 FF90      		pop r15
 4024 010a EF90      		pop r14
 4025 010c DF90      		pop r13
 4026 010e CF90      		pop r12
 4027 0110 0895      		ret
 4028               	.L218:
 4029 0112 17E0      		ldi r17,lo8(7)
 4030 0114 00C0      		rjmp .L216
 4031               	.L223:
 4032 0116 12E0      		ldi r17,lo8(2)
 4033 0118 00C0      		rjmp .L222
 4035               		.section	.text.f_lseek,"ax",@progbits
 4036               	.global	f_lseek
 4038               	f_lseek:
 4039 0000 2F92      		push r2
 4040 0002 3F92      		push r3
 4041 0004 4F92      		push r4
 4042 0006 5F92      		push r5
 4043 0008 6F92      		push r6
 4044 000a 7F92      		push r7
 4045 000c 8F92      		push r8
 4046 000e 9F92      		push r9
 4047 0010 AF92      		push r10
 4048 0012 BF92      		push r11
 4049 0014 CF92      		push r12
 4050 0016 DF92      		push r13
 4051 0018 EF92      		push r14
 4052 001a FF92      		push r15
 4053 001c 0F93      		push r16
 4054 001e 1F93      		push r17
 4055 0020 DF93      		push r29
 4056 0022 CF93      		push r28
 4057 0024 00D0      		rcall .
 4058 0026 00D0      		rcall .
 4059 0028 0F92      		push __tmp_reg__
 4060 002a CDB7      		in r28,__SP_L__
 4061 002c DEB7      		in r29,__SP_H__
 4062               	/* prologue: function */
 4063               	/* frame size = 5 */
 4064 002e 9D83      		std Y+5,r25
 4065 0030 8C83      		std Y+4,r24
 4066 0032 7A01      		movw r14,r20
 4067 0034 8B01      		movw r16,r22
 4068 0036 DC01      		movw r26,r24
 4069 0038 1296      		adiw r26,2
 4070 003a 6D91      		ld r22,X+
 4071 003c 7C91      		ld r23,X
 4072 003e 1397      		sbiw r26,2+1
 4073 0040 8D91      		ld r24,X+
 4074 0042 9C91      		ld r25,X
 4075 0044 0E94 0000 		call validate
 4076 0048 8B83      		std Y+3,r24
 4077 004a 8823      		tst r24
 4078 004c 01F0      		breq .+2
 4079 004e 00C0      		rjmp .L226
 4080 0050 EC81      		ldd r30,Y+4
 4081 0052 FD81      		ldd r31,Y+5
 4082 0054 8481      		ldd r24,Z+4
 4083 0056 87FD      		sbrc r24,7
 4084 0058 00C0      		rjmp .L250
 4085               	.L227:
 4086 005a AC81      		ldd r26,Y+4
 4087 005c BD81      		ldd r27,Y+5
 4088 005e 1A96      		adiw r26,10
 4089 0060 6D90      		ld r6,X+
 4090 0062 7D90      		ld r7,X+
 4091 0064 8D90      		ld r8,X+
 4092 0066 9C90      		ld r9,X
 4093 0068 1D97      		sbiw r26,10+3
 4094 006a 6E14      		cp r6,r14
 4095 006c 7F04      		cpc r7,r15
 4096 006e 8006      		cpc r8,r16
 4097 0070 9106      		cpc r9,r17
 4098 0072 00F4      		brsh .L228
 4099 0074 81FF      		sbrs r24,1
 4100 0076 00C0      		rjmp .L229
 4101               	.L228:
 4102 0078 3701      		movw r6,r14
 4103 007a 4801      		movw r8,r16
 4104               	.L229:
 4105 007c EC81      		ldd r30,Y+4
 4106 007e FD81      		ldd r31,Y+5
 4107 0080 E680      		ldd r14,Z+6
 4108 0082 F780      		ldd r15,Z+7
 4109 0084 0085      		ldd r16,Z+8
 4110 0086 1185      		ldd r17,Z+9
 4111 0088 1682      		std Z+6,__zero_reg__
 4112 008a 1782      		std Z+7,__zero_reg__
 4113 008c 1086      		std Z+8,__zero_reg__
 4114 008e 1186      		std Z+9,__zero_reg__
 4115 0090 6114      		cp r6,__zero_reg__
 4116 0092 7104      		cpc r7,__zero_reg__
 4117 0094 8104      		cpc r8,__zero_reg__
 4118 0096 9104      		cpc r9,__zero_reg__
 4119 0098 01F4      		brne .+2
 4120 009a 00C0      		rjmp .L230
 4121 009c 0190      		ld __tmp_reg__,Z+
 4122 009e F081      		ld r31,Z
 4123 00a0 E02D      		mov r30,__tmp_reg__
 4124 00a2 FA83      		std Y+2,r31
 4125 00a4 E983      		std Y+1,r30
 4126 00a6 8281      		ldd r24,Z+2
 4127 00a8 A82E      		mov r10,r24
 4128 00aa BB24      		clr r11
 4129 00ac CC24      		clr r12
 4130 00ae DD24      		clr r13
 4131 00b0 29E0      		ldi r18,9
 4132 00b2 AA0C      	1:	lsl r10
 4133 00b4 BB1C      		rol r11
 4134 00b6 CC1C      		rol r12
 4135 00b8 DD1C      		rol r13
 4136 00ba 2A95      		dec r18
 4137 00bc 01F4      		brne 1b
 4138 00be E114      		cp r14,__zero_reg__
 4139 00c0 F104      		cpc r15,__zero_reg__
 4140 00c2 0105      		cpc r16,__zero_reg__
 4141 00c4 1105      		cpc r17,__zero_reg__
 4142 00c6 01F0      		breq .L231
 4143 00c8 1701      		movw r2,r14
 4144 00ca 2801      		movw r4,r16
 4145 00cc 0894      		sec
 4146 00ce 2108      		sbc r2,__zero_reg__
 4147 00d0 3108      		sbc r3,__zero_reg__
 4148 00d2 4108      		sbc r4,__zero_reg__
 4149 00d4 5108      		sbc r5,__zero_reg__
 4150 00d6 C401      		movw r24,r8
 4151 00d8 B301      		movw r22,r6
 4152 00da 6150      		subi r22,lo8(-(-1))
 4153 00dc 7040      		sbci r23,hi8(-(-1))
 4154 00de 8040      		sbci r24,hlo8(-(-1))
 4155 00e0 9040      		sbci r25,hhi8(-(-1))
 4156 00e2 A601      		movw r20,r12
 4157 00e4 9501      		movw r18,r10
 4158 00e6 0E94 0000 		call __udivmodsi4
 4159 00ea 7901      		movw r14,r18
 4160 00ec 8A01      		movw r16,r20
 4161 00ee C201      		movw r24,r4
 4162 00f0 B101      		movw r22,r2
 4163 00f2 A601      		movw r20,r12
 4164 00f4 9501      		movw r18,r10
 4165 00f6 0E94 0000 		call __udivmodsi4
 4166 00fa E216      		cp r14,r18
 4167 00fc F306      		cpc r15,r19
 4168 00fe 0407      		cpc r16,r20
 4169 0100 1507      		cpc r17,r21
 4170 0102 00F0      		brlo .L231
 4171 0104 8827      		clr r24
 4172 0106 9927      		clr r25
 4173 0108 DC01      		movw r26,r24
 4174 010a 8A19      		sub r24,r10
 4175 010c 9B09      		sbc r25,r11
 4176 010e AC09      		sbc r26,r12
 4177 0110 BD09      		sbc r27,r13
 4178 0112 8221      		and r24,r2
 4179 0114 9321      		and r25,r3
 4180 0116 A421      		and r26,r4
 4181 0118 B521      		and r27,r5
 4182 011a EC81      		ldd r30,Y+4
 4183 011c FD81      		ldd r31,Y+5
 4184 011e 8683      		std Z+6,r24
 4185 0120 9783      		std Z+7,r25
 4186 0122 A087      		std Z+8,r26
 4187 0124 B187      		std Z+9,r27
 4188 0126 681A      		sub r6,r24
 4189 0128 790A      		sbc r7,r25
 4190 012a 8A0A      		sbc r8,r26
 4191 012c 9B0A      		sbc r9,r27
 4192 012e 4289      		ldd r20,Z+18
 4193 0130 5389      		ldd r21,Z+19
 4194 0132 6489      		ldd r22,Z+20
 4195 0134 7589      		ldd r23,Z+21
 4196 0136 00C0      		rjmp .L232
 4197               	.L231:
 4198 0138 AC81      		ldd r26,Y+4
 4199 013a BD81      		ldd r27,Y+5
 4200 013c 1E96      		adiw r26,14
 4201 013e 4D91      		ld r20,X+
 4202 0140 5D91      		ld r21,X+
 4203 0142 6D91      		ld r22,X+
 4204 0144 7C91      		ld r23,X
 4205 0146 5197      		sbiw r26,14+3
 4206 0148 4115      		cp r20,__zero_reg__
 4207 014a 5105      		cpc r21,__zero_reg__
 4208 014c 6105      		cpc r22,__zero_reg__
 4209 014e 7105      		cpc r23,__zero_reg__
 4210 0150 01F4      		brne .L233
 4211 0152 8981      		ldd r24,Y+1
 4212 0154 9A81      		ldd r25,Y+2
 4213 0156 40E0      		ldi r20,lo8(0)
 4214 0158 50E0      		ldi r21,hi8(0)
 4215 015a 60E0      		ldi r22,hlo8(0)
 4216 015c 70E0      		ldi r23,hhi8(0)
 4217 015e 0E94 0000 		call create_chain
 4218 0162 AB01      		movw r20,r22
 4219 0164 BC01      		movw r22,r24
 4220 0166 4130      		cpi r20,lo8(1)
 4221 0168 5105      		cpc r21,__zero_reg__
 4222 016a 6105      		cpc r22,__zero_reg__
 4223 016c 7105      		cpc r23,__zero_reg__
 4224 016e 01F4      		brne .L234
 4225               	.L252:
 4226 0170 EC81      		ldd r30,Y+4
 4227 0172 FD81      		ldd r31,Y+5
 4228 0174 8481      		ldd r24,Z+4
 4229 0176 8068      		ori r24,lo8(-128)
 4230 0178 8483      		std Z+4,r24
 4231               	.L250:
 4232 017a F2E0      		ldi r31,lo8(2)
 4233 017c FB83      		std Y+3,r31
 4234 017e 00C0      		rjmp .L226
 4235               	.L234:
 4236 0180 4F3F      		cpi r20,lo8(-1)
 4237 0182 8FEF      		ldi r24,hi8(-1)
 4238 0184 5807      		cpc r21,r24
 4239 0186 8FEF      		ldi r24,hlo8(-1)
 4240 0188 6807      		cpc r22,r24
 4241 018a 8FEF      		ldi r24,hhi8(-1)
 4242 018c 7807      		cpc r23,r24
 4243 018e 01F0      		breq .L253
 4244               	.L235:
 4245 0190 EC81      		ldd r30,Y+4
 4246 0192 FD81      		ldd r31,Y+5
 4247 0194 4687      		std Z+14,r20
 4248 0196 5787      		std Z+15,r21
 4249 0198 608B      		std Z+16,r22
 4250 019a 718B      		std Z+17,r23
 4251               	.L233:
 4252 019c AC81      		ldd r26,Y+4
 4253 019e BD81      		ldd r27,Y+5
 4254 01a0 5296      		adiw r26,18
 4255 01a2 4D93      		st X+,r20
 4256 01a4 5D93      		st X+,r21
 4257 01a6 6D93      		st X+,r22
 4258 01a8 7C93      		st X,r23
 4259 01aa 5597      		sbiw r26,18+3
 4260               	.L232:
 4261 01ac 4115      		cp r20,__zero_reg__
 4262 01ae 5105      		cpc r21,__zero_reg__
 4263 01b0 6105      		cpc r22,__zero_reg__
 4264 01b2 7105      		cpc r23,__zero_reg__
 4265 01b4 01F0      		breq .+2
 4266 01b6 00C0      		rjmp .L249
 4267 01b8 00C0      		rjmp .L230
 4268               	.L243:
 4269 01ba EC81      		ldd r30,Y+4
 4270 01bc FD81      		ldd r31,Y+5
 4271 01be 8481      		ldd r24,Z+4
 4272 01c0 2081      		ld r18,Z
 4273 01c2 3181      		ldd r19,Z+1
 4274 01c4 81FF      		sbrs r24,1
 4275 01c6 00C0      		rjmp .L237
 4276 01c8 C901      		movw r24,r18
 4277 01ca 0E94 0000 		call create_chain
 4278 01ce AB01      		movw r20,r22
 4279 01d0 BC01      		movw r22,r24
 4280 01d2 4115      		cp r20,__zero_reg__
 4281 01d4 5105      		cpc r21,__zero_reg__
 4282 01d6 6105      		cpc r22,__zero_reg__
 4283 01d8 7105      		cpc r23,__zero_reg__
 4284 01da 01F4      		brne .L238
 4285 01dc 3501      		movw r6,r10
 4286 01de 4601      		movw r8,r12
 4287 01e0 00C0      		rjmp .L239
 4288               	.L237:
 4289 01e2 C901      		movw r24,r18
 4290 01e4 0E94 0000 		call get_fat
 4291 01e8 AB01      		movw r20,r22
 4292 01ea BC01      		movw r22,r24
 4293               	.L238:
 4294 01ec 4F3F      		cpi r20,lo8(-1)
 4295 01ee FFEF      		ldi r31,hi8(-1)
 4296 01f0 5F07      		cpc r21,r31
 4297 01f2 FFEF      		ldi r31,hlo8(-1)
 4298 01f4 6F07      		cpc r22,r31
 4299 01f6 FFEF      		ldi r31,hhi8(-1)
 4300 01f8 7F07      		cpc r23,r31
 4301 01fa 01F4      		brne .L240
 4302               	.L253:
 4303 01fc AC81      		ldd r26,Y+4
 4304 01fe BD81      		ldd r27,Y+5
 4305 0200 1496      		adiw r26,4
 4306 0202 8C91      		ld r24,X
 4307 0204 1497      		sbiw r26,4
 4308 0206 8068      		ori r24,lo8(-128)
 4309 0208 1496      		adiw r26,4
 4310 020a 8C93      		st X,r24
 4311 020c B1E0      		ldi r27,lo8(1)
 4312 020e 00C0      		rjmp .L251
 4313               	.L240:
 4314 0210 4230      		cpi r20,lo8(2)
 4315 0212 5105      		cpc r21,__zero_reg__
 4316 0214 6105      		cpc r22,__zero_reg__
 4317 0216 7105      		cpc r23,__zero_reg__
 4318 0218 00F4      		brsh .+2
 4319 021a 00C0      		rjmp .L252
 4320 021c AC81      		ldd r26,Y+4
 4321 021e BD81      		ldd r27,Y+5
 4322 0220 ED91      		ld r30,X+
 4323 0222 FC91      		ld r31,X
 4324 0224 828D      		ldd r24,Z+26
 4325 0226 938D      		ldd r25,Z+27
 4326 0228 A48D      		ldd r26,Z+28
 4327 022a B58D      		ldd r27,Z+29
 4328 022c 4817      		cp r20,r24
 4329 022e 5907      		cpc r21,r25
 4330 0230 6A07      		cpc r22,r26
 4331 0232 7B07      		cpc r23,r27
 4332 0234 00F0      		brlo .+2
 4333 0236 00C0      		rjmp .L252
 4334               	.L242:
 4335 0238 AC81      		ldd r26,Y+4
 4336 023a BD81      		ldd r27,Y+5
 4337 023c 5296      		adiw r26,18
 4338 023e 4D93      		st X+,r20
 4339 0240 5D93      		st X+,r21
 4340 0242 6D93      		st X+,r22
 4341 0244 7C93      		st X,r23
 4342 0246 5597      		sbiw r26,18+3
 4343 0248 FD01      		movw r30,r26
 4344 024a 8681      		ldd r24,Z+6
 4345 024c 9781      		ldd r25,Z+7
 4346 024e A085      		ldd r26,Z+8
 4347 0250 B185      		ldd r27,Z+9
 4348 0252 8A0D      		add r24,r10
 4349 0254 9B1D      		adc r25,r11
 4350 0256 AC1D      		adc r26,r12
 4351 0258 BD1D      		adc r27,r13
 4352 025a 8683      		std Z+6,r24
 4353 025c 9783      		std Z+7,r25
 4354 025e A087      		std Z+8,r26
 4355 0260 B187      		std Z+9,r27
 4356 0262 6A18      		sub r6,r10
 4357 0264 7B08      		sbc r7,r11
 4358 0266 8C08      		sbc r8,r12
 4359 0268 9D08      		sbc r9,r13
 4360               	.L249:
 4361 026a A614      		cp r10,r6
 4362 026c B704      		cpc r11,r7
 4363 026e C804      		cpc r12,r8
 4364 0270 D904      		cpc r13,r9
 4365 0272 00F4      		brsh .+2
 4366 0274 00C0      		rjmp .L243
 4367               	.L239:
 4368 0276 EC81      		ldd r30,Y+4
 4369 0278 FD81      		ldd r31,Y+5
 4370 027a 8681      		ldd r24,Z+6
 4371 027c 9781      		ldd r25,Z+7
 4372 027e A085      		ldd r26,Z+8
 4373 0280 B185      		ldd r27,Z+9
 4374 0282 860D      		add r24,r6
 4375 0284 971D      		adc r25,r7
 4376 0286 A81D      		adc r26,r8
 4377 0288 B91D      		adc r27,r9
 4378 028a 8683      		std Z+6,r24
 4379 028c 9783      		std Z+7,r25
 4380 028e A087      		std Z+8,r26
 4381 0290 B187      		std Z+9,r27
 4382 0292 D401      		movw r26,r8
 4383 0294 C301      		movw r24,r6
 4384 0296 9170      		andi r25,hi8(511)
 4385 0298 A070      		andi r26,hlo8(511)
 4386 029a B070      		andi r27,hhi8(511)
 4387 029c 0097      		sbiw r24,0
 4388 029e A105      		cpc r26,__zero_reg__
 4389 02a0 B105      		cpc r27,__zero_reg__
 4390 02a2 01F4      		brne .+2
 4391 02a4 00C0      		rjmp .L230
 4392 02a6 C080      		ld r12,Z
 4393 02a8 D180      		ldd r13,Z+1
 4394 02aa 9EEF      		ldi r25,lo8(-2)
 4395 02ac E92E      		mov r14,r25
 4396 02ae 9FEF      		ldi r25,hi8(-2)
 4397 02b0 F92E      		mov r15,r25
 4398 02b2 9FEF      		ldi r25,hlo8(-2)
 4399 02b4 092F      		mov r16,r25
 4400 02b6 9FEF      		ldi r25,hhi8(-2)
 4401 02b8 192F      		mov r17,r25
 4402 02ba E40E      		add r14,r20
 4403 02bc F51E      		adc r15,r21
 4404 02be 061F      		adc r16,r22
 4405 02c0 171F      		adc r17,r23
 4406 02c2 F601      		movw r30,r12
 4407 02c4 828D      		ldd r24,Z+26
 4408 02c6 938D      		ldd r25,Z+27
 4409 02c8 A48D      		ldd r26,Z+28
 4410 02ca B58D      		ldd r27,Z+29
 4411 02cc 0297      		sbiw r24,2
 4412 02ce A109      		sbc r26,__zero_reg__
 4413 02d0 B109      		sbc r27,__zero_reg__
 4414 02d2 E816      		cp r14,r24
 4415 02d4 F906      		cpc r15,r25
 4416 02d6 0A07      		cpc r16,r26
 4417 02d8 1B07      		cpc r17,r27
 4418 02da 00F4      		brsh .L244
 4419 02dc 2281      		ldd r18,Z+2
 4420 02de 30E0      		ldi r19,lo8(0)
 4421 02e0 40E0      		ldi r20,lo8(0)
 4422 02e2 50E0      		ldi r21,hi8(0)
 4423 02e4 C801      		movw r24,r16
 4424 02e6 B701      		movw r22,r14
 4425 02e8 0E94 0000 		call __mulsi3
 4426 02ec 9B01      		movw r18,r22
 4427 02ee AC01      		movw r20,r24
 4428 02f0 F601      		movw r30,r12
 4429 02f2 82A5      		ldd r24,Z+42
 4430 02f4 93A5      		ldd r25,Z+43
 4431 02f6 A4A5      		ldd r26,Z+44
 4432 02f8 B5A5      		ldd r27,Z+45
 4433 02fa 280F      		add r18,r24
 4434 02fc 391F      		adc r19,r25
 4435 02fe 4A1F      		adc r20,r26
 4436 0300 5B1F      		adc r21,r27
 4437 0302 2115      		cp r18,__zero_reg__
 4438 0304 3105      		cpc r19,__zero_reg__
 4439 0306 4105      		cpc r20,__zero_reg__
 4440 0308 5105      		cpc r21,__zero_reg__
 4441 030a 01F4      		brne .L245
 4442               	.L244:
 4443 030c AC81      		ldd r26,Y+4
 4444 030e BD81      		ldd r27,Y+5
 4445 0310 1496      		adiw r26,4
 4446 0312 8C91      		ld r24,X
 4447 0314 1497      		sbiw r26,4
 4448 0316 8068      		ori r24,lo8(-128)
 4449 0318 1496      		adiw r26,4
 4450 031a 8C93      		st X,r24
 4451 031c B2E0      		ldi r27,lo8(2)
 4452               	.L251:
 4453 031e BB83      		std Y+3,r27
 4454 0320 00C0      		rjmp .L226
 4455               	.L245:
 4456 0322 8401      		movw r16,r8
 4457 0324 7301      		movw r14,r6
 4458 0326 89E0      		ldi r24,9
 4459 0328 1695      	1:	lsr r17
 4460 032a 0795      		ror r16
 4461 032c F794      		ror r15
 4462 032e E794      		ror r14
 4463 0330 8A95      		dec r24
 4464 0332 01F4      		brne 1b
 4465 0334 E20E      		add r14,r18
 4466 0336 F31E      		adc r15,r19
 4467 0338 041F      		adc r16,r20
 4468 033a 151F      		adc r17,r21
 4469 033c 00C0      		rjmp .L246
 4470               	.L230:
 4471 033e EE24      		clr r14
 4472 0340 FF24      		clr r15
 4473 0342 8701      		movw r16,r14
 4474               	.L246:
 4475 0344 EC81      		ldd r30,Y+4
 4476 0346 FD81      		ldd r31,Y+5
 4477 0348 8681      		ldd r24,Z+6
 4478 034a 9781      		ldd r25,Z+7
 4479 034c A085      		ldd r26,Z+8
 4480 034e B185      		ldd r27,Z+9
 4481 0350 9170      		andi r25,hi8(511)
 4482 0352 A070      		andi r26,hlo8(511)
 4483 0354 B070      		andi r27,hhi8(511)
 4484 0356 0097      		sbiw r24,0
 4485 0358 A105      		cpc r26,__zero_reg__
 4486 035a B105      		cpc r27,__zero_reg__
 4487 035c 01F0      		breq .L247
 4488 035e 8689      		ldd r24,Z+22
 4489 0360 9789      		ldd r25,Z+23
 4490 0362 A08D      		ldd r26,Z+24
 4491 0364 B18D      		ldd r27,Z+25
 4492 0366 E816      		cp r14,r24
 4493 0368 F906      		cpc r15,r25
 4494 036a 0A07      		cpc r16,r26
 4495 036c 1B07      		cpc r17,r27
 4496 036e 01F0      		breq .L247
 4497 0370 E68A      		std Z+22,r14
 4498 0372 F78A      		std Z+23,r15
 4499 0374 008F      		std Z+24,r16
 4500 0376 118F      		std Z+25,r17
 4501               	.L247:
 4502 0378 EC81      		ldd r30,Y+4
 4503 037a FD81      		ldd r31,Y+5
 4504 037c 2681      		ldd r18,Z+6
 4505 037e 3781      		ldd r19,Z+7
 4506 0380 4085      		ldd r20,Z+8
 4507 0382 5185      		ldd r21,Z+9
 4508 0384 8285      		ldd r24,Z+10
 4509 0386 9385      		ldd r25,Z+11
 4510 0388 A485      		ldd r26,Z+12
 4511 038a B585      		ldd r27,Z+13
 4512 038c 8217      		cp r24,r18
 4513 038e 9307      		cpc r25,r19
 4514 0390 A407      		cpc r26,r20
 4515 0392 B507      		cpc r27,r21
 4516 0394 00F4      		brsh .L226
 4517 0396 2287      		std Z+10,r18
 4518 0398 3387      		std Z+11,r19
 4519 039a 4487      		std Z+12,r20
 4520 039c 5587      		std Z+13,r21
 4521 039e 8481      		ldd r24,Z+4
 4522 03a0 8062      		ori r24,lo8(32)
 4523 03a2 8483      		std Z+4,r24
 4524               	.L226:
 4525 03a4 8B81      		ldd r24,Y+3
 4526               	/* epilogue start */
 4527 03a6 0F90      		pop __tmp_reg__
 4528 03a8 0F90      		pop __tmp_reg__
 4529 03aa 0F90      		pop __tmp_reg__
 4530 03ac 0F90      		pop __tmp_reg__
 4531 03ae 0F90      		pop __tmp_reg__
 4532 03b0 CF91      		pop r28
 4533 03b2 DF91      		pop r29
 4534 03b4 1F91      		pop r17
 4535 03b6 0F91      		pop r16
 4536 03b8 FF90      		pop r15
 4537 03ba EF90      		pop r14
 4538 03bc DF90      		pop r13
 4539 03be CF90      		pop r12
 4540 03c0 BF90      		pop r11
 4541 03c2 AF90      		pop r10
 4542 03c4 9F90      		pop r9
 4543 03c6 8F90      		pop r8
 4544 03c8 7F90      		pop r7
 4545 03ca 6F90      		pop r6
 4546 03cc 5F90      		pop r5
 4547 03ce 4F90      		pop r4
 4548 03d0 3F90      		pop r3
 4549 03d2 2F90      		pop r2
 4550 03d4 0895      		ret
 4552               		.section	.text.dir_remove,"ax",@progbits
 4554               	dir_remove:
 4555 0000 CF93      		push r28
 4556 0002 DF93      		push r29
 4557               	/* prologue: function */
 4558               	/* frame size = 0 */
 4559 0004 EC01      		movw r28,r24
 4560 0006 6C81      		ldd r22,Y+4
 4561 0008 7D81      		ldd r23,Y+5
 4562 000a 0E94 0000 		call dir_sdi
 4563 000e 982F      		mov r25,r24
 4564 0010 8823      		tst r24
 4565 0012 01F4      		brne .L255
 4566 0014 4E85      		ldd r20,Y+14
 4567 0016 5F85      		ldd r21,Y+15
 4568 0018 6889      		ldd r22,Y+16
 4569 001a 7989      		ldd r23,Y+17
 4570 001c 8881      		ld r24,Y
 4571 001e 9981      		ldd r25,Y+1
 4572 0020 0E94 0000 		call move_window
 4573 0024 982F      		mov r25,r24
 4574 0026 8823      		tst r24
 4575 0028 01F4      		brne .L255
 4576 002a EA89      		ldd r30,Y+18
 4577 002c FB89      		ldd r31,Y+19
 4578 002e 85EE      		ldi r24,lo8(-27)
 4579 0030 8083      		st Z,r24
 4580 0032 E881      		ld r30,Y
 4581 0034 F981      		ldd r31,Y+1
 4582 0036 81E0      		ldi r24,lo8(1)
 4583 0038 8483      		std Z+4,r24
 4584               	.L255:
 4585 003a 892F      		mov r24,r25
 4586               	/* epilogue start */
 4587 003c DF91      		pop r29
 4588 003e CF91      		pop r28
 4589 0040 0895      		ret
 4591               		.section	.text.dir_next,"ax",@progbits
 4593               	dir_next:
 4594 0000 4F92      		push r4
 4595 0002 5F92      		push r5
 4596 0004 6F92      		push r6
 4597 0006 7F92      		push r7
 4598 0008 8F92      		push r8
 4599 000a 9F92      		push r9
 4600 000c AF92      		push r10
 4601 000e BF92      		push r11
 4602 0010 CF92      		push r12
 4603 0012 DF92      		push r13
 4604 0014 EF92      		push r14
 4605 0016 FF92      		push r15
 4606 0018 0F93      		push r16
 4607 001a 1F93      		push r17
 4608 001c CF93      		push r28
 4609 001e DF93      		push r29
 4610               	/* prologue: function */
 4611               	/* frame size = 0 */
 4612 0020 EC01      		movw r28,r24
 4613 0022 6B01      		movw r12,r22
 4614 0024 6C80      		ldd r6,Y+4
 4615 0026 7D80      		ldd r7,Y+5
 4616 0028 0894      		sec
 4617 002a 611C      		adc r6,__zero_reg__
 4618 002c 711C      		adc r7,__zero_reg__
 4619 002e 6114      		cp r6,__zero_reg__
 4620 0030 7104      		cpc r7,__zero_reg__
 4621 0032 01F4      		brne .+2
 4622 0034 00C0      		rjmp .L258
 4623 0036 8E85      		ldd r24,Y+14
 4624 0038 9F85      		ldd r25,Y+15
 4625 003a A889      		ldd r26,Y+16
 4626 003c B989      		ldd r27,Y+17
 4627 003e 0097      		sbiw r24,0
 4628 0040 A105      		cpc r26,__zero_reg__
 4629 0042 B105      		cpc r27,__zero_reg__
 4630 0044 01F4      		brne .+2
 4631 0046 00C0      		rjmp .L258
 4632 0048 1FE0      		ldi r17,lo8(15)
 4633 004a 412E      		mov r4,r17
 4634 004c 512C      		mov r5,__zero_reg__
 4635 004e 4620      		and r4,r6
 4636 0050 5720      		and r5,r7
 4637 0052 4114      		cp r4,__zero_reg__
 4638 0054 5104      		cpc r5,__zero_reg__
 4639 0056 01F0      		breq .+2
 4640 0058 00C0      		rjmp .L259
 4641 005a 0196      		adiw r24,1
 4642 005c A11D      		adc r26,__zero_reg__
 4643 005e B11D      		adc r27,__zero_reg__
 4644 0060 8E87      		std Y+14,r24
 4645 0062 9F87      		std Y+15,r25
 4646 0064 A88B      		std Y+16,r26
 4647 0066 B98B      		std Y+17,r27
 4648 0068 4A85      		ldd r20,Y+10
 4649 006a 5B85      		ldd r21,Y+11
 4650 006c 6C85      		ldd r22,Y+12
 4651 006e 7D85      		ldd r23,Y+13
 4652 0070 E881      		ld r30,Y
 4653 0072 F981      		ldd r31,Y+1
 4654 0074 4115      		cp r20,__zero_reg__
 4655 0076 5105      		cpc r21,__zero_reg__
 4656 0078 6105      		cpc r22,__zero_reg__
 4657 007a 7105      		cpc r23,__zero_reg__
 4658 007c 01F4      		brne .L260
 4659 007e 8085      		ldd r24,Z+8
 4660 0080 9185      		ldd r25,Z+9
 4661 0082 6816      		cp r6,r24
 4662 0084 7906      		cpc r7,r25
 4663 0086 00F4      		brsh .+2
 4664 0088 00C0      		rjmp .L259
 4665 008a 00C0      		rjmp .L258
 4666               	.L260:
 4667 008c 8281      		ldd r24,Z+2
 4668 008e 90E0      		ldi r25,lo8(0)
 4669 0090 0197      		sbiw r24,1
 4670 0092 9301      		movw r18,r6
 4671 0094 A4E0      		ldi r26,4
 4672 0096 3695      	1:	lsr r19
 4673 0098 2795      		ror r18
 4674 009a AA95      		dec r26
 4675 009c 01F4      		brne 1b
 4676 009e 8223      		and r24,r18
 4677 00a0 9323      		and r25,r19
 4678 00a2 892B      		or r24,r25
 4679 00a4 01F0      		breq .+2
 4680 00a6 00C0      		rjmp .L259
 4681 00a8 CF01      		movw r24,r30
 4682 00aa 0E94 0000 		call get_fat
 4683 00ae 7B01      		movw r14,r22
 4684 00b0 8C01      		movw r16,r24
 4685 00b2 6230      		cpi r22,lo8(2)
 4686 00b4 7105      		cpc r23,__zero_reg__
 4687 00b6 8105      		cpc r24,__zero_reg__
 4688 00b8 9105      		cpc r25,__zero_reg__
 4689 00ba 00F4      		brsh .+2
 4690 00bc 00C0      		rjmp .L261
 4691 00be 8FEF      		ldi r24,lo8(-1)
 4692 00c0 E816      		cp r14,r24
 4693 00c2 8FEF      		ldi r24,hi8(-1)
 4694 00c4 F806      		cpc r15,r24
 4695 00c6 8FEF      		ldi r24,hlo8(-1)
 4696 00c8 0807      		cpc r16,r24
 4697 00ca 8FEF      		ldi r24,hhi8(-1)
 4698 00cc 1807      		cpc r17,r24
 4699 00ce 01F4      		brne .+2
 4700 00d0 00C0      		rjmp .L262
 4701 00d2 E881      		ld r30,Y
 4702 00d4 F981      		ldd r31,Y+1
 4703 00d6 828D      		ldd r24,Z+26
 4704 00d8 938D      		ldd r25,Z+27
 4705 00da A48D      		ldd r26,Z+28
 4706 00dc B58D      		ldd r27,Z+29
 4707 00de E816      		cp r14,r24
 4708 00e0 F906      		cpc r15,r25
 4709 00e2 0A07      		cpc r16,r26
 4710 00e4 1B07      		cpc r17,r27
 4711 00e6 00F4      		brsh .+2
 4712 00e8 00C0      		rjmp .L263
 4713 00ea CD28      		or r12,r13
 4714 00ec 01F4      		brne .+2
 4715 00ee 00C0      		rjmp .L258
 4716 00f0 4A85      		ldd r20,Y+10
 4717 00f2 5B85      		ldd r21,Y+11
 4718 00f4 6C85      		ldd r22,Y+12
 4719 00f6 7D85      		ldd r23,Y+13
 4720 00f8 CF01      		movw r24,r30
 4721 00fa 0E94 0000 		call create_chain
 4722 00fe 7B01      		movw r14,r22
 4723 0100 8C01      		movw r16,r24
 4724 0102 6115      		cp r22,__zero_reg__
 4725 0104 7105      		cpc r23,__zero_reg__
 4726 0106 8105      		cpc r24,__zero_reg__
 4727 0108 9105      		cpc r25,__zero_reg__
 4728 010a 01F4      		brne .L264
 4729 010c 87E0      		ldi r24,lo8(7)
 4730 010e 00C0      		rjmp .L265
 4731               	.L264:
 4732 0110 91E0      		ldi r25,lo8(1)
 4733 0112 E916      		cp r14,r25
 4734 0114 F104      		cpc r15,__zero_reg__
 4735 0116 0105      		cpc r16,__zero_reg__
 4736 0118 1105      		cpc r17,__zero_reg__
 4737 011a 01F4      		brne .+2
 4738 011c 00C0      		rjmp .L261
 4739 011e AFEF      		ldi r26,lo8(-1)
 4740 0120 EA16      		cp r14,r26
 4741 0122 AFEF      		ldi r26,hi8(-1)
 4742 0124 FA06      		cpc r15,r26
 4743 0126 AFEF      		ldi r26,hlo8(-1)
 4744 0128 0A07      		cpc r16,r26
 4745 012a AFEF      		ldi r26,hhi8(-1)
 4746 012c 1A07      		cpc r17,r26
 4747 012e 01F4      		brne .+2
 4748 0130 00C0      		rjmp .L262
 4749 0132 8881      		ld r24,Y
 4750 0134 9981      		ldd r25,Y+1
 4751 0136 40E0      		ldi r20,lo8(0)
 4752 0138 50E0      		ldi r21,hi8(0)
 4753 013a 60E0      		ldi r22,hlo8(0)
 4754 013c 70E0      		ldi r23,hhi8(0)
 4755 013e 0E94 0000 		call move_window
 4756 0142 8823      		tst r24
 4757 0144 01F0      		breq .+2
 4758 0146 00C0      		rjmp .L262
 4759 0148 E881      		ld r30,Y
 4760 014a F981      		ldd r31,Y+1
 4761 014c F296      		adiw r30,50
 4762 014e 80E0      		ldi r24,lo8(512)
 4763 0150 92E0      		ldi r25,hi8(512)
 4764 0152 00C0      		rjmp .L266
 4765               	.L267:
 4766 0154 1192      		st Z+,__zero_reg__
 4767               	.L266:
 4768 0156 0197      		sbiw r24,1
 4769 0158 BFEF      		ldi r27,hi8(-1)
 4770 015a 8F3F      		cpi r24,lo8(-1)
 4771 015c 9B07      		cpc r25,r27
 4772 015e 01F4      		brne .L267
 4773 0160 8880      		ld r8,Y
 4774 0162 9980      		ldd r9,Y+1
 4775 0164 4EEF      		ldi r20,lo8(-2)
 4776 0166 A42E      		mov r10,r20
 4777 0168 4FEF      		ldi r20,hi8(-2)
 4778 016a B42E      		mov r11,r20
 4779 016c 4FEF      		ldi r20,hlo8(-2)
 4780 016e C42E      		mov r12,r20
 4781 0170 4FEF      		ldi r20,hhi8(-2)
 4782 0172 D42E      		mov r13,r20
 4783 0174 AE0C      		add r10,r14
 4784 0176 BF1C      		adc r11,r15
 4785 0178 C01E      		adc r12,r16
 4786 017a D11E      		adc r13,r17
 4787 017c F401      		movw r30,r8
 4788 017e 828D      		ldd r24,Z+26
 4789 0180 938D      		ldd r25,Z+27
 4790 0182 A48D      		ldd r26,Z+28
 4791 0184 B58D      		ldd r27,Z+29
 4792 0186 0297      		sbiw r24,2
 4793 0188 A109      		sbc r26,__zero_reg__
 4794 018a B109      		sbc r27,__zero_reg__
 4795 018c A816      		cp r10,r24
 4796 018e B906      		cpc r11,r25
 4797 0190 CA06      		cpc r12,r26
 4798 0192 DB06      		cpc r13,r27
 4799 0194 00F0      		brlo .L268
 4800 0196 20E0      		ldi r18,lo8(0)
 4801 0198 30E0      		ldi r19,hi8(0)
 4802 019a 40E0      		ldi r20,hlo8(0)
 4803 019c 50E0      		ldi r21,hhi8(0)
 4804 019e 00C0      		rjmp .L269
 4805               	.L268:
 4806 01a0 D401      		movw r26,r8
 4807 01a2 1296      		adiw r26,2
 4808 01a4 2C91      		ld r18,X
 4809 01a6 30E0      		ldi r19,lo8(0)
 4810 01a8 40E0      		ldi r20,lo8(0)
 4811 01aa 50E0      		ldi r21,hi8(0)
 4812 01ac C601      		movw r24,r12
 4813 01ae B501      		movw r22,r10
 4814 01b0 0E94 0000 		call __mulsi3
 4815 01b4 9B01      		movw r18,r22
 4816 01b6 AC01      		movw r20,r24
 4817 01b8 F401      		movw r30,r8
 4818 01ba 82A5      		ldd r24,Z+42
 4819 01bc 93A5      		ldd r25,Z+43
 4820 01be A4A5      		ldd r26,Z+44
 4821 01c0 B5A5      		ldd r27,Z+45
 4822 01c2 280F      		add r18,r24
 4823 01c4 391F      		adc r19,r25
 4824 01c6 4A1F      		adc r20,r26
 4825 01c8 5B1F      		adc r21,r27
 4826               	.L269:
 4827 01ca D401      		movw r26,r8
 4828 01cc 9E96      		adiw r26,46
 4829 01ce 2D93      		st X+,r18
 4830 01d0 3D93      		st X+,r19
 4831 01d2 4D93      		st X+,r20
 4832 01d4 5C93      		st X,r21
 4833 01d6 D197      		sbiw r26,46+3
 4834 01d8 DD24      		clr r13
 4835 01da CC24      		clr r12
 4836 01dc C394      		inc r12
 4837 01de 00C0      		rjmp .L270
 4838               	.L271:
 4839 01e0 C482      		std Z+4,r12
 4840 01e2 8881      		ld r24,Y
 4841 01e4 9981      		ldd r25,Y+1
 4842 01e6 40E0      		ldi r20,lo8(0)
 4843 01e8 50E0      		ldi r21,hi8(0)
 4844 01ea 60E0      		ldi r22,hlo8(0)
 4845 01ec 70E0      		ldi r23,hhi8(0)
 4846 01ee 0E94 0000 		call move_window
 4847 01f2 8823      		tst r24
 4848 01f4 01F0      		breq .+2
 4849 01f6 00C0      		rjmp .L262
 4850 01f8 E881      		ld r30,Y
 4851 01fa F981      		ldd r31,Y+1
 4852 01fc 86A5      		ldd r24,Z+46
 4853 01fe 97A5      		ldd r25,Z+47
 4854 0200 A0A9      		ldd r26,Z+48
 4855 0202 B1A9      		ldd r27,Z+49
 4856 0204 0196      		adiw r24,1
 4857 0206 A11D      		adc r26,__zero_reg__
 4858 0208 B11D      		adc r27,__zero_reg__
 4859 020a 86A7      		std Z+46,r24
 4860 020c 97A7      		std Z+47,r25
 4861 020e A0AB      		std Z+48,r26
 4862 0210 B1AB      		std Z+49,r27
 4863 0212 D394      		inc r13
 4864               	.L270:
 4865 0214 E881      		ld r30,Y
 4866 0216 F981      		ldd r31,Y+1
 4867 0218 8281      		ldd r24,Z+2
 4868 021a D816      		cp r13,r24
 4869 021c 00F0      		brlo .L271
 4870 021e 86A5      		ldd r24,Z+46
 4871 0220 97A5      		ldd r25,Z+47
 4872 0222 A0A9      		ldd r26,Z+48
 4873 0224 B1A9      		ldd r27,Z+49
 4874 0226 8D19      		sub r24,r13
 4875 0228 9109      		sbc r25,__zero_reg__
 4876 022a A109      		sbc r26,__zero_reg__
 4877 022c B109      		sbc r27,__zero_reg__
 4878 022e 86A7      		std Z+46,r24
 4879 0230 97A7      		std Z+47,r25
 4880 0232 A0AB      		std Z+48,r26
 4881 0234 B1AB      		std Z+49,r27
 4882               	.L263:
 4883 0236 EA86      		std Y+10,r14
 4884 0238 FB86      		std Y+11,r15
 4885 023a 0C87      		std Y+12,r16
 4886 023c 1D87      		std Y+13,r17
 4887 023e C880      		ld r12,Y
 4888 0240 D980      		ldd r13,Y+1
 4889 0242 8EEF      		ldi r24,lo8(-2)
 4890 0244 9FEF      		ldi r25,hi8(-2)
 4891 0246 AFEF      		ldi r26,hlo8(-2)
 4892 0248 BFEF      		ldi r27,hhi8(-2)
 4893 024a E80E      		add r14,r24
 4894 024c F91E      		adc r15,r25
 4895 024e 0A1F      		adc r16,r26
 4896 0250 1B1F      		adc r17,r27
 4897 0252 F601      		movw r30,r12
 4898 0254 828D      		ldd r24,Z+26
 4899 0256 938D      		ldd r25,Z+27
 4900 0258 A48D      		ldd r26,Z+28
 4901 025a B58D      		ldd r27,Z+29
 4902 025c 0297      		sbiw r24,2
 4903 025e A109      		sbc r26,__zero_reg__
 4904 0260 B109      		sbc r27,__zero_reg__
 4905 0262 E816      		cp r14,r24
 4906 0264 F906      		cpc r15,r25
 4907 0266 0A07      		cpc r16,r26
 4908 0268 1B07      		cpc r17,r27
 4909 026a 00F0      		brlo .L272
 4910 026c 20E0      		ldi r18,lo8(0)
 4911 026e 30E0      		ldi r19,hi8(0)
 4912 0270 40E0      		ldi r20,hlo8(0)
 4913 0272 50E0      		ldi r21,hhi8(0)
 4914 0274 00C0      		rjmp .L273
 4915               	.L272:
 4916 0276 D601      		movw r26,r12
 4917 0278 1296      		adiw r26,2
 4918 027a 2C91      		ld r18,X
 4919 027c 30E0      		ldi r19,lo8(0)
 4920 027e 40E0      		ldi r20,lo8(0)
 4921 0280 50E0      		ldi r21,hi8(0)
 4922 0282 C801      		movw r24,r16
 4923 0284 B701      		movw r22,r14
 4924 0286 0E94 0000 		call __mulsi3
 4925 028a 9B01      		movw r18,r22
 4926 028c AC01      		movw r20,r24
 4927 028e F601      		movw r30,r12
 4928 0290 82A5      		ldd r24,Z+42
 4929 0292 93A5      		ldd r25,Z+43
 4930 0294 A4A5      		ldd r26,Z+44
 4931 0296 B5A5      		ldd r27,Z+45
 4932 0298 280F      		add r18,r24
 4933 029a 391F      		adc r19,r25
 4934 029c 4A1F      		adc r20,r26
 4935 029e 5B1F      		adc r21,r27
 4936               	.L273:
 4937 02a0 2E87      		std Y+14,r18
 4938 02a2 3F87      		std Y+15,r19
 4939 02a4 488B      		std Y+16,r20
 4940 02a6 598B      		std Y+17,r21
 4941               	.L259:
 4942 02a8 7D82      		std Y+5,r7
 4943 02aa 6C82      		std Y+4,r6
 4944 02ac 35E0      		ldi r19,5
 4945 02ae 440C      	1:	lsl r4
 4946 02b0 551C      		rol r5
 4947 02b2 3A95      		dec r19
 4948 02b4 01F4      		brne 1b
 4949 02b6 82E3      		ldi r24,lo8(50)
 4950 02b8 90E0      		ldi r25,hi8(50)
 4951 02ba 480E      		add r4,r24
 4952 02bc 591E      		adc r5,r25
 4953 02be 8881      		ld r24,Y
 4954 02c0 9981      		ldd r25,Y+1
 4955 02c2 840D      		add r24,r4
 4956 02c4 951D      		adc r25,r5
 4957 02c6 9B8B      		std Y+19,r25
 4958 02c8 8A8B      		std Y+18,r24
 4959 02ca 80E0      		ldi r24,lo8(0)
 4960 02cc 00C0      		rjmp .L265
 4961               	.L258:
 4962 02ce 84E0      		ldi r24,lo8(4)
 4963 02d0 00C0      		rjmp .L265
 4964               	.L261:
 4965 02d2 82E0      		ldi r24,lo8(2)
 4966 02d4 00C0      		rjmp .L265
 4967               	.L262:
 4968 02d6 81E0      		ldi r24,lo8(1)
 4969               	.L265:
 4970               	/* epilogue start */
 4971 02d8 DF91      		pop r29
 4972 02da CF91      		pop r28
 4973 02dc 1F91      		pop r17
 4974 02de 0F91      		pop r16
 4975 02e0 FF90      		pop r15
 4976 02e2 EF90      		pop r14
 4977 02e4 DF90      		pop r13
 4978 02e6 CF90      		pop r12
 4979 02e8 BF90      		pop r11
 4980 02ea AF90      		pop r10
 4981 02ec 9F90      		pop r9
 4982 02ee 8F90      		pop r8
 4983 02f0 7F90      		pop r7
 4984 02f2 6F90      		pop r6
 4985 02f4 5F90      		pop r5
 4986 02f6 4F90      		pop r4
 4987 02f8 0895      		ret
 4989               		.data
 4990               	.LC2:
 4991 0028 222A 2B2C 		.string	"\"*+,:<=>?[]|\177"
 4991      3A3C 3D3E 
 4991      3F5B 5D7C 
 4991      7F00 
 4992               		.section	.text.follow_path,"ax",@progbits
 4994               	follow_path:
 4995 0000 AF92      		push r10
 4996 0002 BF92      		push r11
 4997 0004 CF92      		push r12
 4998 0006 DF92      		push r13
 4999 0008 EF92      		push r14
 5000 000a FF92      		push r15
 5001 000c 0F93      		push r16
 5002 000e 1F93      		push r17
 5003 0010 CF93      		push r28
 5004 0012 DF93      		push r29
 5005               	/* prologue: function */
 5006               	/* frame size = 0 */
 5007 0014 EC01      		movw r28,r24
 5008 0016 7B01      		movw r14,r22
 5009 0018 FB01      		movw r30,r22
 5010 001a 8081      		ld r24,Z
 5011 001c 8F32      		cpi r24,lo8(47)
 5012 001e 01F0      		breq .L276
 5013 0020 8C35      		cpi r24,lo8(92)
 5014 0022 01F4      		brne .L277
 5015               	.L276:
 5016 0024 0894      		sec
 5017 0026 E11C      		adc r14,__zero_reg__
 5018 0028 F11C      		adc r15,__zero_reg__
 5019 002a 1E82      		std Y+6,__zero_reg__
 5020 002c 1F82      		std Y+7,__zero_reg__
 5021 002e 1886      		std Y+8,__zero_reg__
 5022 0030 1986      		std Y+9,__zero_reg__
 5023 0032 00C0      		rjmp .L278
 5024               	.L277:
 5025 0034 E881      		ld r30,Y
 5026 0036 F981      		ldd r31,Y+1
 5027 0038 8689      		ldd r24,Z+22
 5028 003a 9789      		ldd r25,Z+23
 5029 003c A08D      		ldd r26,Z+24
 5030 003e B18D      		ldd r27,Z+25
 5031 0040 8E83      		std Y+6,r24
 5032 0042 9F83      		std Y+7,r25
 5033 0044 A887      		std Y+8,r26
 5034 0046 B987      		std Y+9,r27
 5035               	.L278:
 5036 0048 F701      		movw r30,r14
 5037 004a 8081      		ld r24,Z
 5038 004c 8032      		cpi r24,lo8(32)
 5039 004e 00F4      		brsh .L316
 5040 0050 CE01      		movw r24,r28
 5041 0052 60E0      		ldi r22,lo8(0)
 5042 0054 70E0      		ldi r23,hi8(0)
 5043 0056 0E94 0000 		call dir_sdi
 5044 005a 482F      		mov r20,r24
 5045 005c 1B8A      		std Y+19,__zero_reg__
 5046 005e 1A8A      		std Y+18,__zero_reg__
 5047 0060 00C0      		rjmp .L280
 5048               	.L316:
 5049 0062 90E2      		ldi r25,lo8(32)
 5050 0064 B92E      		mov r11,r25
 5051 0066 85E0      		ldi r24,lo8(5)
 5052 0068 A82E      		mov r10,r24
 5053               	.L320:
 5054 006a 0C89      		ldd r16,Y+20
 5055 006c 1D89      		ldd r17,Y+21
 5056 006e F801      		movw r30,r16
 5057 0070 8BE0      		ldi r24,lo8(11)
 5058 0072 90E0      		ldi r25,hi8(11)
 5059 0074 00C0      		rjmp .L281
 5060               	.L282:
 5061 0076 B192      		st Z+,r11
 5062               	.L281:
 5063 0078 0197      		sbiw r24,1
 5064 007a 2FEF      		ldi r18,hi8(-1)
 5065 007c 8F3F      		cpi r24,lo8(-1)
 5066 007e 9207      		cpc r25,r18
 5067 0080 01F4      		brne .L282
 5068 0082 F701      		movw r30,r14
 5069 0084 8081      		ld r24,Z
 5070 0086 8E32      		cpi r24,lo8(46)
 5071 0088 01F0      		breq .L283
 5072 008a 30E0      		ldi r19,lo8(0)
 5073 008c 60E0      		ldi r22,lo8(0)
 5074 008e 70E0      		ldi r23,hi8(0)
 5075 0090 CC24      		clr r12
 5076 0092 DD24      		clr r13
 5077 0094 A8E0      		ldi r26,lo8(8)
 5078 0096 B0E0      		ldi r27,hi8(8)
 5079 0098 00C0      		rjmp .L321
 5080               	.L283:
 5081 009a D801      		movw r26,r16
 5082 009c 80E0      		ldi r24,lo8(0)
 5083 009e 90E0      		ldi r25,hi8(0)
 5084               	.L287:
 5085 00a0 F701      		movw r30,r14
 5086 00a2 E80F      		add r30,r24
 5087 00a4 F91F      		adc r31,r25
 5088 00a6 E081      		ld r30,Z
 5089 00a8 0196      		adiw r24,1
 5090 00aa EE32      		cpi r30,lo8(46)
 5091 00ac 01F4      		brne .L285
 5092 00ae 8330      		cpi r24,3
 5093 00b0 9105      		cpc r25,__zero_reg__
 5094 00b2 01F4      		brne .+2
 5095 00b4 00C0      		rjmp .L286
 5096 00b6 ED93      		st X+,r30
 5097 00b8 00C0      		rjmp .L287
 5098               	.L285:
 5099 00ba EF32      		cpi r30,lo8(47)
 5100 00bc 01F0      		breq .L288
 5101 00be EC35      		cpi r30,lo8(92)
 5102 00c0 01F0      		breq .L289
 5103 00c2 E132      		cpi r30,lo8(33)
 5104 00c4 00F0      		brlo .+2
 5105 00c6 00C0      		rjmp .L286
 5106               	.L288:
 5107 00c8 E132      		cpi r30,lo8(33)
 5108 00ca 00F4      		brsh .L289
 5109 00cc 24E2      		ldi r18,lo8(36)
 5110 00ce 00C0      		rjmp .L290
 5111               	.L289:
 5112 00d0 20E2      		ldi r18,lo8(32)
 5113               	.L290:
 5114 00d2 E80E      		add r14,r24
 5115 00d4 F91E      		adc r15,r25
 5116 00d6 F801      		movw r30,r16
 5117 00d8 2387      		std Z+11,r18
 5118 00da 00C0      		rjmp .L291
 5119               	.L321:
 5120 00dc F701      		movw r30,r14
 5121 00de EC0D      		add r30,r12
 5122 00e0 FD1D      		adc r31,r13
 5123 00e2 2081      		ld r18,Z
 5124 00e4 0894      		sec
 5125 00e6 C11C      		adc r12,__zero_reg__
 5126 00e8 D11C      		adc r13,__zero_reg__
 5127 00ea 2132      		cpi r18,lo8(33)
 5128 00ec 00F0      		brlo .L292
 5129 00ee 2F32      		cpi r18,lo8(47)
 5130 00f0 01F4      		brne .+2
 5131 00f2 00C0      		rjmp .L293
 5132 00f4 2C35      		cpi r18,lo8(92)
 5133 00f6 01F4      		brne .+2
 5134 00f8 00C0      		rjmp .L293
 5135 00fa 2E32      		cpi r18,lo8(46)
 5136 00fc 01F0      		breq .L294
 5137 00fe 6A17      		cp r22,r26
 5138 0100 7B07      		cpc r23,r27
 5139 0102 04F0      		brlt .L295
 5140               	.L294:
 5141 0104 1897      		sbiw r26,8
 5142 0106 01F0      		breq .+2
 5143 0108 00C0      		rjmp .L286
 5144 010a 2E32      		cpi r18,lo8(46)
 5145 010c 01F0      		breq .+2
 5146 010e 00C0      		rjmp .L286
 5147 0110 330F      		lsl r19
 5148 0112 330F      		lsl r19
 5149 0114 68E0      		ldi r22,lo8(8)
 5150 0116 70E0      		ldi r23,hi8(8)
 5151 0118 ABE0      		ldi r26,lo8(11)
 5152 011a B0E0      		ldi r27,hi8(11)
 5153 011c 00C0      		rjmp .L321
 5154               	.L295:
 5155 011e 27FD      		sbrc r18,7
 5156 0120 00C0      		rjmp .L286
 5157 0122 422F      		mov r20,r18
 5158 0124 50E0      		ldi r21,lo8(0)
 5159 0126 E0E0      		ldi r30,lo8(.LC2)
 5160 0128 F0E0      		ldi r31,hi8(.LC2)
 5161 012a 00C0      		rjmp .L296
 5162               	.L298:
 5163 012c 3196      		adiw r30,1
 5164               	.L296:
 5165 012e 8081      		ld r24,Z
 5166 0130 8823      		tst r24
 5167 0132 01F0      		breq .L297
 5168 0134 90E0      		ldi r25,lo8(0)
 5169 0136 8417      		cp r24,r20
 5170 0138 9507      		cpc r25,r21
 5171 013a 01F4      		brne .L298
 5172 013c 00C0      		rjmp .L286
 5173               	.L297:
 5174 013e 822F      		mov r24,r18
 5175 0140 8154      		subi r24,lo8(-(-65))
 5176 0142 8A31      		cpi r24,lo8(26)
 5177 0144 00F4      		brsh .L299
 5178 0146 3260      		ori r19,lo8(2)
 5179 0148 00C0      		rjmp .L300
 5180               	.L299:
 5181 014a 822F      		mov r24,r18
 5182 014c 8156      		subi r24,lo8(-(-97))
 5183 014e 8A31      		cpi r24,lo8(26)
 5184 0150 00F4      		brsh .L300
 5185 0152 3160      		ori r19,lo8(1)
 5186 0154 2052      		subi r18,lo8(-(-32))
 5187               	.L300:
 5188 0156 F801      		movw r30,r16
 5189 0158 E60F      		add r30,r22
 5190 015a F71F      		adc r31,r23
 5191 015c 2083      		st Z,r18
 5192 015e 6F5F      		subi r22,lo8(-(1))
 5193 0160 7F4F      		sbci r23,hi8(-(1))
 5194 0162 00C0      		rjmp .L321
 5195               	.L292:
 5196 0164 44E0      		ldi r20,lo8(4)
 5197               	.L313:
 5198 0166 672B      		or r22,r23
 5199 0168 01F4      		brne .+2
 5200 016a 00C0      		rjmp .L286
 5201 016c F801      		movw r30,r16
 5202 016e 8081      		ld r24,Z
 5203 0170 853E      		cpi r24,lo8(-27)
 5204 0172 01F4      		brne .L301
 5205 0174 A082      		st Z,r10
 5206               	.L301:
 5207 0176 1897      		sbiw r26,8
 5208 0178 01F4      		brne .L302
 5209 017a 330F      		lsl r19
 5210 017c 330F      		lsl r19
 5211               	.L302:
 5212 017e 232F      		mov r18,r19
 5213 0180 30E0      		ldi r19,lo8(0)
 5214 0182 C901      		movw r24,r18
 5215 0184 8370      		andi r24,lo8(3)
 5216 0186 9070      		andi r25,hi8(3)
 5217 0188 0197      		sbiw r24,1
 5218 018a 01F4      		brne .L303
 5219 018c 4061      		ori r20,lo8(16)
 5220               	.L303:
 5221 018e 2C70      		andi r18,lo8(12)
 5222 0190 3070      		andi r19,hi8(12)
 5223 0192 2430      		cpi r18,4
 5224 0194 3105      		cpc r19,__zero_reg__
 5225 0196 01F4      		brne .L304
 5226 0198 4860      		ori r20,lo8(8)
 5227               	.L304:
 5228 019a EC0C      		add r14,r12
 5229 019c FD1C      		adc r15,r13
 5230 019e F801      		movw r30,r16
 5231 01a0 4387      		std Z+11,r20
 5232 01a2 00C0      		rjmp .L291
 5233               	.L323:
 5234 01a4 4E85      		ldd r20,Y+14
 5235 01a6 5F85      		ldd r21,Y+15
 5236 01a8 6889      		ldd r22,Y+16
 5237 01aa 7989      		ldd r23,Y+17
 5238 01ac 8881      		ld r24,Y
 5239 01ae 9981      		ldd r25,Y+1
 5240 01b0 0E94 0000 		call move_window
 5241 01b4 482F      		mov r20,r24
 5242 01b6 8823      		tst r24
 5243 01b8 01F4      		brne .L305
 5244 01ba EA89      		ldd r30,Y+18
 5245 01bc FB89      		ldd r31,Y+19
 5246 01be 8081      		ld r24,Z
 5247 01c0 8823      		tst r24
 5248 01c2 01F4      		brne .L306
 5249 01c4 44E0      		ldi r20,lo8(4)
 5250 01c6 00C0      		rjmp .L305
 5251               	.L306:
 5252 01c8 8385      		ldd r24,Z+11
 5253 01ca 83FD      		sbrc r24,3
 5254 01cc 00C0      		rjmp .L307
 5255 01ce DF01      		movw r26,r30
 5256 01d0 8C89      		ldd r24,Y+20
 5257 01d2 9D89      		ldd r25,Y+21
 5258 01d4 9C01      		movw r18,r24
 5259 01d6 F901      		movw r30,r18
 5260 01d8 2BE0      		ldi r18,lo8(11)
 5261 01da 30E0      		ldi r19,hi8(11)
 5262               	.L308:
 5263 01dc 2150      		subi r18,lo8(-(-1))
 5264 01de 3040      		sbci r19,hi8(-(-1))
 5265 01e0 8FEF      		ldi r24,hi8(-1)
 5266 01e2 2F3F      		cpi r18,lo8(-1)
 5267 01e4 3807      		cpc r19,r24
 5268 01e6 01F0      		breq .L305
 5269 01e8 9C91      		ld r25,X
 5270 01ea 8081      		ld r24,Z
 5271 01ec 9817      		cp r25,r24
 5272 01ee 01F4      		brne .L307
 5273 01f0 1196      		adiw r26,1
 5274 01f2 3196      		adiw r30,1
 5275 01f4 00C0      		rjmp .L308
 5276               	.L307:
 5277 01f6 CE01      		movw r24,r28
 5278 01f8 60E0      		ldi r22,lo8(0)
 5279 01fa 70E0      		ldi r23,hi8(0)
 5280 01fc 0E94 0000 		call dir_next
 5281 0200 00C0      		rjmp .L322
 5282               	.L305:
 5283 0202 EC89      		ldd r30,Y+20
 5284 0204 FD89      		ldd r31,Y+21
 5285 0206 8385      		ldd r24,Z+11
 5286 0208 4423      		tst r20
 5287 020a 01F0      		breq .L310
 5288 020c 4430      		cpi r20,lo8(4)
 5289 020e 01F4      		brne .L280
 5290 0210 90E0      		ldi r25,lo8(0)
 5291 0212 9C01      		movw r18,r24
 5292 0214 2470      		andi r18,lo8(4)
 5293 0216 3070      		andi r19,hi8(4)
 5294 0218 85FF      		sbrs r24,5
 5295 021a 00C0      		rjmp .L311
 5296 021c 1E82      		std Y+6,__zero_reg__
 5297 021e 1F82      		std Y+7,__zero_reg__
 5298 0220 1886      		std Y+8,__zero_reg__
 5299 0222 1986      		std Y+9,__zero_reg__
 5300 0224 1B8A      		std Y+19,__zero_reg__
 5301 0226 1A8A      		std Y+18,__zero_reg__
 5302 0228 232B      		or r18,r19
 5303 022a 01F4      		brne .+2
 5304 022c 00C0      		rjmp .L320
 5305 022e 40E0      		ldi r20,lo8(0)
 5306 0230 00C0      		rjmp .L280
 5307               	.L311:
 5308 0232 232B      		or r18,r19
 5309 0234 01F0      		breq .L312
 5310 0236 00C0      		rjmp .L280
 5311               	.L310:
 5312 0238 82FD      		sbrc r24,2
 5313 023a 00C0      		rjmp .L280
 5314 023c EA89      		ldd r30,Y+18
 5315 023e FB89      		ldd r31,Y+19
 5316 0240 8385      		ldd r24,Z+11
 5317 0242 84FF      		sbrs r24,4
 5318 0244 00C0      		rjmp .L312
 5319 0246 8489      		ldd r24,Z+20
 5320 0248 9589      		ldd r25,Z+21
 5321 024a A0E0      		ldi r26,lo8(0)
 5322 024c B0E0      		ldi r27,hi8(0)
 5323 024e DC01      		movw r26,r24
 5324 0250 9927      		clr r25
 5325 0252 8827      		clr r24
 5326 0254 228D      		ldd r18,Z+26
 5327 0256 338D      		ldd r19,Z+27
 5328 0258 40E0      		ldi r20,lo8(0)
 5329 025a 50E0      		ldi r21,hi8(0)
 5330 025c 822B      		or r24,r18
 5331 025e 932B      		or r25,r19
 5332 0260 A42B      		or r26,r20
 5333 0262 B52B      		or r27,r21
 5334 0264 8E83      		std Y+6,r24
 5335 0266 9F83      		std Y+7,r25
 5336 0268 A887      		std Y+8,r26
 5337 026a B987      		std Y+9,r27
 5338 026c 00C0      		rjmp .L320
 5339               	.L286:
 5340 026e 46E0      		ldi r20,lo8(6)
 5341 0270 00C0      		rjmp .L280
 5342               	.L312:
 5343 0272 45E0      		ldi r20,lo8(5)
 5344               	.L280:
 5345 0274 842F      		mov r24,r20
 5346               	/* epilogue start */
 5347 0276 DF91      		pop r29
 5348 0278 CF91      		pop r28
 5349 027a 1F91      		pop r17
 5350 027c 0F91      		pop r16
 5351 027e FF90      		pop r15
 5352 0280 EF90      		pop r14
 5353 0282 DF90      		pop r13
 5354 0284 CF90      		pop r12
 5355 0286 BF90      		pop r11
 5356 0288 AF90      		pop r10
 5357 028a 0895      		ret
 5358               	.L291:
 5359 028c CE01      		movw r24,r28
 5360 028e 60E0      		ldi r22,lo8(0)
 5361 0290 70E0      		ldi r23,hi8(0)
 5362 0292 0E94 0000 		call dir_sdi
 5363               	.L322:
 5364 0296 482F      		mov r20,r24
 5365 0298 8823      		tst r24
 5366 029a 01F4      		brne .+2
 5367 029c 00C0      		rjmp .L323
 5368 029e 00C0      		rjmp .L305
 5369               	.L293:
 5370 02a0 40E0      		ldi r20,lo8(0)
 5371 02a2 00C0      		rjmp .L313
 5373               		.section	.text.f_utime,"ax",@progbits
 5374               	.global	f_utime
 5376               	f_utime:
 5377 0000 EF92      		push r14
 5378 0002 FF92      		push r15
 5379 0004 0F93      		push r16
 5380 0006 1F93      		push r17
 5381 0008 DF93      		push r29
 5382 000a CF93      		push r28
 5383 000c CDB7      		in r28,__SP_L__
 5384 000e DEB7      		in r29,__SP_H__
 5385 0010 A497      		sbiw r28,36
 5386 0012 0FB6      		in __tmp_reg__,__SREG__
 5387 0014 F894      		cli
 5388 0016 DEBF      		out __SP_H__,r29
 5389 0018 0FBE      		out __SREG__,__tmp_reg__
 5390 001a CDBF      		out __SP_L__,r28
 5391               	/* prologue: function */
 5392               	/* frame size = 36 */
 5393 001c 9CA3      		std Y+36,r25
 5394 001e 8BA3      		std Y+35,r24
 5395 0020 7B01      		movw r14,r22
 5396 0022 8E01      		movw r16,r28
 5397 0024 035F      		subi r16,lo8(-(13))
 5398 0026 1F4F      		sbci r17,hi8(-(13))
 5399 0028 CE01      		movw r24,r28
 5400 002a 8396      		adiw r24,35
 5401 002c B801      		movw r22,r16
 5402 002e 41E0      		ldi r20,lo8(1)
 5403 0030 0E94 0000 		call chk_mounted
 5404 0034 8823      		tst r24
 5405 0036 01F4      		brne .L325
 5406 0038 CE01      		movw r24,r28
 5407 003a 0196      		adiw r24,1
 5408 003c 9AA3      		std Y+34,r25
 5409 003e 89A3      		std Y+33,r24
 5410 0040 6BA1      		ldd r22,Y+35
 5411 0042 7CA1      		ldd r23,Y+36
 5412 0044 C801      		movw r24,r16
 5413 0046 0E94 0000 		call follow_path
 5414 004a 8823      		tst r24
 5415 004c 01F4      		brne .L325
 5416 004e E9A1      		ldd r30,Y+33
 5417 0050 FAA1      		ldd r31,Y+34
 5418 0052 8385      		ldd r24,Z+11
 5419 0054 85FD      		sbrc r24,5
 5420 0056 00C0      		rjmp .L326
 5421 0058 EF8D      		ldd r30,Y+31
 5422 005a F8A1      		ldd r31,Y+32
 5423 005c 3097      		sbiw r30,0
 5424 005e 01F0      		breq .L326
 5425 0060 D701      		movw r26,r14
 5426 0062 1696      		adiw r26,6
 5427 0064 8D91      		ld r24,X+
 5428 0066 9C91      		ld r25,X
 5429 0068 1797      		sbiw r26,6+1
 5430 006a 978B      		std Z+23,r25
 5431 006c 868B      		std Z+22,r24
 5432 006e 1496      		adiw r26,4
 5433 0070 8D91      		ld r24,X+
 5434 0072 9C91      		ld r25,X
 5435 0074 1597      		sbiw r26,4+1
 5436 0076 918F      		std Z+25,r25
 5437 0078 808F      		std Z+24,r24
 5438 007a ED85      		ldd r30,Y+13
 5439 007c FE85      		ldd r31,Y+14
 5440 007e 81E0      		ldi r24,lo8(1)
 5441 0080 8483      		std Z+4,r24
 5442 0082 CF01      		movw r24,r30
 5443 0084 0E94 0000 		call sync
 5444 0088 00C0      		rjmp .L325
 5445               	.L326:
 5446 008a 86E0      		ldi r24,lo8(6)
 5447               	.L325:
 5448               	/* epilogue start */
 5449 008c A496      		adiw r28,36
 5450 008e 0FB6      		in __tmp_reg__,__SREG__
 5451 0090 F894      		cli
 5452 0092 DEBF      		out __SP_H__,r29
 5453 0094 0FBE      		out __SREG__,__tmp_reg__
 5454 0096 CDBF      		out __SP_L__,r28
 5455 0098 CF91      		pop r28
 5456 009a DF91      		pop r29
 5457 009c 1F91      		pop r17
 5458 009e 0F91      		pop r16
 5459 00a0 FF90      		pop r15
 5460 00a2 EF90      		pop r14
 5461 00a4 0895      		ret
 5463               		.section	.text.f_chmod,"ax",@progbits
 5464               	.global	f_chmod
 5466               	f_chmod:
 5467 0000 EF92      		push r14
 5468 0002 FF92      		push r15
 5469 0004 0F93      		push r16
 5470 0006 1F93      		push r17
 5471 0008 DF93      		push r29
 5472 000a CF93      		push r28
 5473 000c CDB7      		in r28,__SP_L__
 5474 000e DEB7      		in r29,__SP_H__
 5475 0010 A497      		sbiw r28,36
 5476 0012 0FB6      		in __tmp_reg__,__SREG__
 5477 0014 F894      		cli
 5478 0016 DEBF      		out __SP_H__,r29
 5479 0018 0FBE      		out __SREG__,__tmp_reg__
 5480 001a CDBF      		out __SP_L__,r28
 5481               	/* prologue: function */
 5482               	/* frame size = 36 */
 5483 001c 9CA3      		std Y+36,r25
 5484 001e 8BA3      		std Y+35,r24
 5485 0020 E62E      		mov r14,r22
 5486 0022 F42E      		mov r15,r20
 5487 0024 8E01      		movw r16,r28
 5488 0026 035F      		subi r16,lo8(-(13))
 5489 0028 1F4F      		sbci r17,hi8(-(13))
 5490 002a CE01      		movw r24,r28
 5491 002c 8396      		adiw r24,35
 5492 002e B801      		movw r22,r16
 5493 0030 41E0      		ldi r20,lo8(1)
 5494 0032 0E94 0000 		call chk_mounted
 5495 0036 8823      		tst r24
 5496 0038 01F4      		brne .L329
 5497 003a CE01      		movw r24,r28
 5498 003c 0196      		adiw r24,1
 5499 003e 9AA3      		std Y+34,r25
 5500 0040 89A3      		std Y+33,r24
 5501 0042 6BA1      		ldd r22,Y+35
 5502 0044 7CA1      		ldd r23,Y+36
 5503 0046 C801      		movw r24,r16
 5504 0048 0E94 0000 		call follow_path
 5505 004c 8823      		tst r24
 5506 004e 01F4      		brne .L329
 5507 0050 E9A1      		ldd r30,Y+33
 5508 0052 FAA1      		ldd r31,Y+34
 5509 0054 8385      		ldd r24,Z+11
 5510 0056 85FD      		sbrc r24,5
 5511 0058 00C0      		rjmp .L330
 5512 005a EF8D      		ldd r30,Y+31
 5513 005c F8A1      		ldd r31,Y+32
 5514 005e 3097      		sbiw r30,0
 5515 0060 01F0      		breq .L330
 5516 0062 9F2D      		mov r25,r15
 5517 0064 9772      		andi r25,lo8(39)
 5518 0066 892F      		mov r24,r25
 5519 0068 8095      		com r24
 5520 006a 2385      		ldd r18,Z+11
 5521 006c 8223      		and r24,r18
 5522 006e 9E21      		and r25,r14
 5523 0070 892B      		or r24,r25
 5524 0072 8387      		std Z+11,r24
 5525 0074 ED85      		ldd r30,Y+13
 5526 0076 FE85      		ldd r31,Y+14
 5527 0078 81E0      		ldi r24,lo8(1)
 5528 007a 8483      		std Z+4,r24
 5529 007c CF01      		movw r24,r30
 5530 007e 0E94 0000 		call sync
 5531 0082 00C0      		rjmp .L329
 5532               	.L330:
 5533 0084 86E0      		ldi r24,lo8(6)
 5534               	.L329:
 5535               	/* epilogue start */
 5536 0086 A496      		adiw r28,36
 5537 0088 0FB6      		in __tmp_reg__,__SREG__
 5538 008a F894      		cli
 5539 008c DEBF      		out __SP_H__,r29
 5540 008e 0FBE      		out __SREG__,__tmp_reg__
 5541 0090 CDBF      		out __SP_L__,r28
 5542 0092 CF91      		pop r28
 5543 0094 DF91      		pop r29
 5544 0096 1F91      		pop r17
 5545 0098 0F91      		pop r16
 5546 009a FF90      		pop r15
 5547 009c EF90      		pop r14
 5548 009e 0895      		ret
 5550               		.section	.text.f_stat,"ax",@progbits
 5551               	.global	f_stat
 5553               	f_stat:
 5554 0000 CF92      		push r12
 5555 0002 DF92      		push r13
 5556 0004 EF92      		push r14
 5557 0006 FF92      		push r15
 5558 0008 1F93      		push r17
 5559 000a DF93      		push r29
 5560 000c CF93      		push r28
 5561 000e CDB7      		in r28,__SP_L__
 5562 0010 DEB7      		in r29,__SP_H__
 5563 0012 A497      		sbiw r28,36
 5564 0014 0FB6      		in __tmp_reg__,__SREG__
 5565 0016 F894      		cli
 5566 0018 DEBF      		out __SP_H__,r29
 5567 001a 0FBE      		out __SREG__,__tmp_reg__
 5568 001c CDBF      		out __SP_L__,r28
 5569               	/* prologue: function */
 5570               	/* frame size = 36 */
 5571 001e 9CA3      		std Y+36,r25
 5572 0020 8BA3      		std Y+35,r24
 5573 0022 6B01      		movw r12,r22
 5574 0024 2DE0      		ldi r18,lo8(13)
 5575 0026 E22E      		mov r14,r18
 5576 0028 F12C      		mov r15,__zero_reg__
 5577 002a EC0E      		add r14,r28
 5578 002c FD1E      		adc r15,r29
 5579 002e CE01      		movw r24,r28
 5580 0030 8396      		adiw r24,35
 5581 0032 B701      		movw r22,r14
 5582 0034 40E0      		ldi r20,lo8(0)
 5583 0036 0E94 0000 		call chk_mounted
 5584 003a 182F      		mov r17,r24
 5585 003c 8823      		tst r24
 5586 003e 01F4      		brne .L333
 5587 0040 CE01      		movw r24,r28
 5588 0042 0196      		adiw r24,1
 5589 0044 9AA3      		std Y+34,r25
 5590 0046 89A3      		std Y+33,r24
 5591 0048 6BA1      		ldd r22,Y+35
 5592 004a 7CA1      		ldd r23,Y+36
 5593 004c C701      		movw r24,r14
 5594 004e 0E94 0000 		call follow_path
 5595 0052 182F      		mov r17,r24
 5596 0054 8823      		tst r24
 5597 0056 01F4      		brne .L333
 5598 0058 8F8D      		ldd r24,Y+31
 5599 005a 98A1      		ldd r25,Y+32
 5600 005c 892B      		or r24,r25
 5601 005e 01F4      		brne .L334
 5602 0060 16E0      		ldi r17,lo8(6)
 5603 0062 00C0      		rjmp .L333
 5604               	.L334:
 5605 0064 C701      		movw r24,r14
 5606 0066 B601      		movw r22,r12
 5607 0068 0E94 0000 		call get_fileinfo
 5608               	.L333:
 5609 006c 812F      		mov r24,r17
 5610               	/* epilogue start */
 5611 006e A496      		adiw r28,36
 5612 0070 0FB6      		in __tmp_reg__,__SREG__
 5613 0072 F894      		cli
 5614 0074 DEBF      		out __SP_H__,r29
 5615 0076 0FBE      		out __SREG__,__tmp_reg__
 5616 0078 CDBF      		out __SP_L__,r28
 5617 007a CF91      		pop r28
 5618 007c DF91      		pop r29
 5619 007e 1F91      		pop r17
 5620 0080 FF90      		pop r15
 5621 0082 EF90      		pop r14
 5622 0084 DF90      		pop r13
 5623 0086 CF90      		pop r12
 5624 0088 0895      		ret
 5626               		.section	.text.f_opendir,"ax",@progbits
 5627               	.global	f_opendir
 5629               	f_opendir:
 5630 0000 0F93      		push r16
 5631 0002 1F93      		push r17
 5632 0004 DF93      		push r29
 5633 0006 CF93      		push r28
 5634 0008 CDB7      		in r28,__SP_L__
 5635 000a DEB7      		in r29,__SP_H__
 5636 000c 2E97      		sbiw r28,14
 5637 000e 0FB6      		in __tmp_reg__,__SREG__
 5638 0010 F894      		cli
 5639 0012 DEBF      		out __SP_H__,r29
 5640 0014 0FBE      		out __SREG__,__tmp_reg__
 5641 0016 CDBF      		out __SP_L__,r28
 5642               	/* prologue: function */
 5643               	/* frame size = 14 */
 5644 0018 8C01      		movw r16,r24
 5645 001a 7E87      		std Y+14,r23
 5646 001c 6D87      		std Y+13,r22
 5647 001e CE01      		movw r24,r28
 5648 0020 0D96      		adiw r24,13
 5649 0022 B801      		movw r22,r16
 5650 0024 40E0      		ldi r20,lo8(0)
 5651 0026 0E94 0000 		call chk_mounted
 5652 002a 8823      		tst r24
 5653 002c 01F4      		brne .L337
 5654 002e CE01      		movw r24,r28
 5655 0030 0196      		adiw r24,1
 5656 0032 D801      		movw r26,r16
 5657 0034 5596      		adiw r26,20+1
 5658 0036 9C93      		st X,r25
 5659 0038 8E93      		st -X,r24
 5660 003a 5497      		sbiw r26,20
 5661 003c 6D85      		ldd r22,Y+13
 5662 003e 7E85      		ldd r23,Y+14
 5663 0040 C801      		movw r24,r16
 5664 0042 0E94 0000 		call follow_path
 5665 0046 8823      		tst r24
 5666 0048 01F4      		brne .L338
 5667 004a D801      		movw r26,r16
 5668 004c 5296      		adiw r26,18
 5669 004e ED91      		ld r30,X+
 5670 0050 FC91      		ld r31,X
 5671 0052 5397      		sbiw r26,18+1
 5672 0054 3097      		sbiw r30,0
 5673 0056 01F0      		breq .L339
 5674 0058 8385      		ldd r24,Z+11
 5675 005a 84FF      		sbrs r24,4
 5676 005c 00C0      		rjmp .L342
 5677               	.L340:
 5678 005e 8489      		ldd r24,Z+20
 5679 0060 9589      		ldd r25,Z+21
 5680 0062 A0E0      		ldi r26,lo8(0)
 5681 0064 B0E0      		ldi r27,hi8(0)
 5682 0066 DC01      		movw r26,r24
 5683 0068 9927      		clr r25
 5684 006a 8827      		clr r24
 5685 006c 228D      		ldd r18,Z+26
 5686 006e 338D      		ldd r19,Z+27
 5687 0070 40E0      		ldi r20,lo8(0)
 5688 0072 50E0      		ldi r21,hi8(0)
 5689 0074 822B      		or r24,r18
 5690 0076 932B      		or r25,r19
 5691 0078 A42B      		or r26,r20
 5692 007a B52B      		or r27,r21
 5693 007c F801      		movw r30,r16
 5694 007e 8683      		std Z+6,r24
 5695 0080 9783      		std Z+7,r25
 5696 0082 A087      		std Z+8,r26
 5697 0084 B187      		std Z+9,r27
 5698               	.L339:
 5699 0086 D801      		movw r26,r16
 5700 0088 ED91      		ld r30,X+
 5701 008a FC91      		ld r31,X
 5702 008c 1197      		sbiw r26,1
 5703 008e 8681      		ldd r24,Z+6
 5704 0090 9781      		ldd r25,Z+7
 5705 0092 1396      		adiw r26,2+1
 5706 0094 9C93      		st X,r25
 5707 0096 8E93      		st -X,r24
 5708 0098 1297      		sbiw r26,2
 5709 009a C801      		movw r24,r16
 5710 009c 60E0      		ldi r22,lo8(0)
 5711 009e 70E0      		ldi r23,hi8(0)
 5712 00a0 0E94 0000 		call dir_sdi
 5713               	.L338:
 5714 00a4 8430      		cpi r24,lo8(4)
 5715 00a6 01F4      		brne .L337
 5716               	.L342:
 5717 00a8 85E0      		ldi r24,lo8(5)
 5718               	.L337:
 5719               	/* epilogue start */
 5720 00aa 2E96      		adiw r28,14
 5721 00ac 0FB6      		in __tmp_reg__,__SREG__
 5722 00ae F894      		cli
 5723 00b0 DEBF      		out __SP_H__,r29
 5724 00b2 0FBE      		out __SREG__,__tmp_reg__
 5725 00b4 CDBF      		out __SP_L__,r28
 5726 00b6 CF91      		pop r28
 5727 00b8 DF91      		pop r29
 5728 00ba 1F91      		pop r17
 5729 00bc 0F91      		pop r16
 5730 00be 0895      		ret
 5732               		.section	.text.f_chdir,"ax",@progbits
 5733               	.global	f_chdir
 5735               	f_chdir:
 5736 0000 0F93      		push r16
 5737 0002 1F93      		push r17
 5738 0004 DF93      		push r29
 5739 0006 CF93      		push r28
 5740 0008 CDB7      		in r28,__SP_L__
 5741 000a DEB7      		in r29,__SP_H__
 5742 000c A497      		sbiw r28,36
 5743 000e 0FB6      		in __tmp_reg__,__SREG__
 5744 0010 F894      		cli
 5745 0012 DEBF      		out __SP_H__,r29
 5746 0014 0FBE      		out __SREG__,__tmp_reg__
 5747 0016 CDBF      		out __SP_L__,r28
 5748               	/* prologue: function */
 5749               	/* frame size = 36 */
 5750 0018 9CA3      		std Y+36,r25
 5751 001a 8BA3      		std Y+35,r24
 5752 001c 8E01      		movw r16,r28
 5753 001e 035F      		subi r16,lo8(-(13))
 5754 0020 1F4F      		sbci r17,hi8(-(13))
 5755 0022 CE01      		movw r24,r28
 5756 0024 8396      		adiw r24,35
 5757 0026 B801      		movw r22,r16
 5758 0028 40E0      		ldi r20,lo8(0)
 5759 002a 0E94 0000 		call chk_mounted
 5760 002e 682F      		mov r22,r24
 5761 0030 8823      		tst r24
 5762 0032 01F4      		brne .L344
 5763 0034 CE01      		movw r24,r28
 5764 0036 0196      		adiw r24,1
 5765 0038 9AA3      		std Y+34,r25
 5766 003a 89A3      		std Y+33,r24
 5767 003c 6BA1      		ldd r22,Y+35
 5768 003e 7CA1      		ldd r23,Y+36
 5769 0040 C801      		movw r24,r16
 5770 0042 0E94 0000 		call follow_path
 5771 0046 682F      		mov r22,r24
 5772 0048 8823      		tst r24
 5773 004a 01F4      		brne .L345
 5774 004c 2F8D      		ldd r18,Y+31
 5775 004e 38A1      		ldd r19,Y+32
 5776 0050 2115      		cp r18,__zero_reg__
 5777 0052 3105      		cpc r19,__zero_reg__
 5778 0054 01F4      		brne .L346
 5779 0056 ED85      		ldd r30,Y+13
 5780 0058 FE85      		ldd r31,Y+14
 5781 005a 8B89      		ldd r24,Y+19
 5782 005c 9C89      		ldd r25,Y+20
 5783 005e AD89      		ldd r26,Y+21
 5784 0060 BE89      		ldd r27,Y+22
 5785 0062 00C0      		rjmp .L349
 5786               	.L346:
 5787 0064 D901      		movw r26,r18
 5788 0066 1B96      		adiw r26,11
 5789 0068 8C91      		ld r24,X
 5790 006a 1B97      		sbiw r26,11
 5791 006c 84FF      		sbrs r24,4
 5792 006e 00C0      		rjmp .L350
 5793 0070 0D85      		ldd r16,Y+13
 5794 0072 1E85      		ldd r17,Y+14
 5795 0074 5496      		adiw r26,20
 5796 0076 8D91      		ld r24,X+
 5797 0078 9C91      		ld r25,X
 5798 007a 5597      		sbiw r26,20+1
 5799 007c A0E0      		ldi r26,lo8(0)
 5800 007e B0E0      		ldi r27,hi8(0)
 5801 0080 DC01      		movw r26,r24
 5802 0082 9927      		clr r25
 5803 0084 8827      		clr r24
 5804 0086 F901      		movw r30,r18
 5805 0088 228D      		ldd r18,Z+26
 5806 008a 338D      		ldd r19,Z+27
 5807 008c 40E0      		ldi r20,lo8(0)
 5808 008e 50E0      		ldi r21,hi8(0)
 5809 0090 822B      		or r24,r18
 5810 0092 932B      		or r25,r19
 5811 0094 A42B      		or r26,r20
 5812 0096 B52B      		or r27,r21
 5813 0098 F801      		movw r30,r16
 5814               	.L349:
 5815 009a 868B      		std Z+22,r24
 5816 009c 978B      		std Z+23,r25
 5817 009e A08F      		std Z+24,r26
 5818 00a0 B18F      		std Z+25,r27
 5819 00a2 00C0      		rjmp .L344
 5820               	.L345:
 5821 00a4 8430      		cpi r24,lo8(4)
 5822 00a6 01F4      		brne .L344
 5823               	.L350:
 5824 00a8 65E0      		ldi r22,lo8(5)
 5825               	.L344:
 5826 00aa 862F      		mov r24,r22
 5827               	/* epilogue start */
 5828 00ac A496      		adiw r28,36
 5829 00ae 0FB6      		in __tmp_reg__,__SREG__
 5830 00b0 F894      		cli
 5831 00b2 DEBF      		out __SP_H__,r29
 5832 00b4 0FBE      		out __SREG__,__tmp_reg__
 5833 00b6 CDBF      		out __SP_L__,r28
 5834 00b8 CF91      		pop r28
 5835 00ba DF91      		pop r29
 5836 00bc 1F91      		pop r17
 5837 00be 0F91      		pop r16
 5838 00c0 0895      		ret
 5840               		.section	.text.dir_register,"ax",@progbits
 5842               	dir_register:
 5843 0000 EF92      		push r14
 5844 0002 FF92      		push r15
 5845 0004 0F93      		push r16
 5846 0006 1F93      		push r17
 5847 0008 CF93      		push r28
 5848 000a DF93      		push r29
 5849               	/* prologue: function */
 5850               	/* frame size = 0 */
 5851 000c EC01      		movw r28,r24
 5852 000e 60E0      		ldi r22,lo8(0)
 5853 0010 70E0      		ldi r23,hi8(0)
 5854 0012 0E94 0000 		call dir_sdi
 5855               	.L363:
 5856 0016 482F      		mov r20,r24
 5857 0018 8823      		tst r24
 5858 001a 01F0      		breq .+2
 5859 001c 00C0      		rjmp .L352
 5860 001e 4E85      		ldd r20,Y+14
 5861 0020 5F85      		ldd r21,Y+15
 5862 0022 6889      		ldd r22,Y+16
 5863 0024 7989      		ldd r23,Y+17
 5864 0026 8881      		ld r24,Y
 5865 0028 9981      		ldd r25,Y+1
 5866 002a 0E94 0000 		call move_window
 5867 002e 482F      		mov r20,r24
 5868 0030 8823      		tst r24
 5869 0032 01F4      		brne .L352
 5870 0034 EA89      		ldd r30,Y+18
 5871 0036 FB89      		ldd r31,Y+19
 5872 0038 E081      		ld r30,Z
 5873 003a E53E      		cpi r30,lo8(-27)
 5874 003c 01F0      		breq .L353
 5875 003e EE23      		tst r30
 5876 0040 01F0      		breq .L353
 5877 0042 CE01      		movw r24,r28
 5878 0044 61E0      		ldi r22,lo8(1)
 5879 0046 70E0      		ldi r23,hi8(1)
 5880 0048 0E94 0000 		call dir_next
 5881 004c 00C0      		rjmp .L363
 5882               	.L358:
 5883 004e EA89      		ldd r30,Y+18
 5884 0050 FB89      		ldd r31,Y+19
 5885 0052 DF01      		movw r26,r30
 5886 0054 80E2      		ldi r24,lo8(32)
 5887 0056 90E0      		ldi r25,hi8(32)
 5888 0058 00C0      		rjmp .L355
 5889               	.L356:
 5890 005a 1D92      		st X+,__zero_reg__
 5891               	.L355:
 5892 005c 0197      		sbiw r24,1
 5893 005e 2FEF      		ldi r18,hi8(-1)
 5894 0060 8F3F      		cpi r24,lo8(-1)
 5895 0062 9207      		cpc r25,r18
 5896 0064 01F4      		brne .L356
 5897 0066 0C89      		ldd r16,Y+20
 5898 0068 1D89      		ldd r17,Y+21
 5899 006a BF01      		movw r22,r30
 5900 006c 7801      		movw r14,r16
 5901 006e 2BE0      		ldi r18,lo8(11)
 5902 0070 30E0      		ldi r19,hi8(11)
 5903               	.L357:
 5904 0072 D701      		movw r26,r14
 5905 0074 8D91      		ld r24,X+
 5906 0076 9D91      		ld r25,X+
 5907 0078 7D01      		movw r14,r26
 5908 007a DB01      		movw r26,r22
 5909 007c 8D93      		st X+,r24
 5910 007e 9D93      		st X+,r25
 5911 0080 BD01      		movw r22,r26
 5912 0082 2250      		subi r18,lo8(-(-2))
 5913 0084 3040      		sbci r19,hi8(-(-2))
 5914 0086 2130      		cpi r18,1
 5915 0088 3105      		cpc r19,__zero_reg__
 5916 008a 01F4      		brne .L357
 5917 008c D801      		movw r26,r16
 5918 008e 1A96      		adiw r26,10
 5919 0090 8C91      		ld r24,X
 5920 0092 8287      		std Z+10,r24
 5921 0094 E881      		ld r30,Y
 5922 0096 F981      		ldd r31,Y+1
 5923 0098 81E0      		ldi r24,lo8(1)
 5924 009a 8483      		std Z+4,r24
 5925               	.L352:
 5926 009c 842F      		mov r24,r20
 5927               	/* epilogue start */
 5928 009e DF91      		pop r29
 5929 00a0 CF91      		pop r28
 5930 00a2 1F91      		pop r17
 5931 00a4 0F91      		pop r16
 5932 00a6 FF90      		pop r15
 5933 00a8 EF90      		pop r14
 5934 00aa 0895      		ret
 5935               	.L353:
 5936 00ac 4E85      		ldd r20,Y+14
 5937 00ae 5F85      		ldd r21,Y+15
 5938 00b0 6889      		ldd r22,Y+16
 5939 00b2 7989      		ldd r23,Y+17
 5940 00b4 8881      		ld r24,Y
 5941 00b6 9981      		ldd r25,Y+1
 5942 00b8 0E94 0000 		call move_window
 5943 00bc 482F      		mov r20,r24
 5944 00be 8823      		tst r24
 5945 00c0 01F0      		breq .L358
 5946 00c2 00C0      		rjmp .L352
 5948               		.section	.text.f_rename,"ax",@progbits
 5949               	.global	f_rename
 5951               	f_rename:
 5952 0000 AF92      		push r10
 5953 0002 BF92      		push r11
 5954 0004 CF92      		push r12
 5955 0006 DF92      		push r13
 5956 0008 EF92      		push r14
 5957 000a FF92      		push r15
 5958 000c 0F93      		push r16
 5959 000e 1F93      		push r17
 5960 0010 DF93      		push r29
 5961 0012 CF93      		push r28
 5962 0014 CDB7      		in r28,__SP_L__
 5963 0016 DEB7      		in r29,__SP_H__
 5964 0018 CF54      		subi r28,lo8(-(-79))
 5965 001a D040      		sbci r29,hi8(-(-79))
 5966 001c 0FB6      		in __tmp_reg__,__SREG__
 5967 001e F894      		cli
 5968 0020 DEBF      		out __SP_H__,r29
 5969 0022 0FBE      		out __SREG__,__tmp_reg__
 5970 0024 CDBF      		out __SP_L__,r28
 5971               	/* prologue: function */
 5972               	/* frame size = 79 */
 5973 0026 8E01      		movw r16,r28
 5974 0028 025B      		subi r16,lo8(-(78))
 5975 002a 1F4F      		sbci r17,hi8(-(78))
 5976 002c D801      		movw r26,r16
 5977 002e 8D93      		st X+,r24
 5978 0030 9C93      		st X,r25
 5979 0032 6B01      		movw r12,r22
 5980 0034 82E2      		ldi r24,lo8(34)
 5981 0036 E82E      		mov r14,r24
 5982 0038 F12C      		mov r15,__zero_reg__
 5983 003a EC0E      		add r14,r28
 5984 003c FD1E      		adc r15,r29
 5985 003e C801      		movw r24,r16
 5986 0040 B701      		movw r22,r14
 5987 0042 41E0      		ldi r20,lo8(1)
 5988 0044 0E94 0000 		call chk_mounted
 5989 0048 8823      		tst r24
 5990 004a 01F0      		breq .+2
 5991 004c 00C0      		rjmp .L365
 5992 004e 8AA1      		ldd r24,Y+34
 5993 0050 9BA1      		ldd r25,Y+35
 5994 0052 99AF      		std Y+57,r25
 5995 0054 88AF      		std Y+56,r24
 5996 0056 CE01      		movw r24,r28
 5997 0058 0196      		adiw r24,1
 5998 005a 9FAB      		std Y+55,r25
 5999 005c 8EAB      		std Y+54,r24
 6000 005e F801      		movw r30,r16
 6001 0060 6081      		ld r22,Z
 6002 0062 7181      		ldd r23,Z+1
 6003 0064 C701      		movw r24,r14
 6004 0066 0E94 0000 		call follow_path
 6005 006a 8823      		tst r24
 6006 006c 01F0      		breq .+2
 6007 006e 00C0      		rjmp .L365
 6008 0070 EEA9      		ldd r30,Y+54
 6009 0072 FFA9      		ldd r31,Y+55
 6010 0074 8385      		ldd r24,Z+11
 6011 0076 85FF      		sbrs r24,5
 6012 0078 00C0      		rjmp .L366
 6013 007a 86E0      		ldi r24,lo8(6)
 6014 007c 00C0      		rjmp .L365
 6015               	.L366:
 6016 007e 8CA9      		ldd r24,Y+52
 6017 0080 9DA9      		ldd r25,Y+53
 6018 0082 0097      		sbiw r24,0
 6019 0084 01F4      		brne .L367
 6020 0086 84E0      		ldi r24,lo8(4)
 6021 0088 00C0      		rjmp .L365
 6022               	.L367:
 6023 008a 9C01      		movw r18,r24
 6024 008c 255F      		subi r18,lo8(-(11))
 6025 008e 3F4F      		sbci r19,hi8(-(11))
 6026 0090 DC01      		movw r26,r24
 6027 0092 FE01      		movw r30,r28
 6028 0094 3D96      		adiw r30,13
 6029 0096 11E2      		ldi r17,lo8(33)
 6030 0098 E12E      		mov r14,r17
 6031 009a F12C      		mov r15,__zero_reg__
 6032 009c EC0E      		add r14,r28
 6033 009e FD1E      		adc r15,r29
 6034 00a0 00C0      		rjmp .L368
 6035               	.L369:
 6036 00a2 1996      		adiw r26,9
 6037 00a4 8D91      		ld r24,X+
 6038 00a6 9C91      		ld r25,X
 6039 00a8 1A97      		sbiw r26,9+1
 6040 00aa 8193      		st Z+,r24
 6041 00ac 9193      		st Z+,r25
 6042               	.L368:
 6043 00ae 1296      		adiw r26,2
 6044 00b0 EE15      		cp r30,r14
 6045 00b2 FF05      		cpc r31,r15
 6046 00b4 01F4      		brne .L369
 6047 00b6 D901      		movw r26,r18
 6048 00b8 5496      		adiw r26,20
 6049 00ba 8C91      		ld r24,X
 6050 00bc 89A3      		std Y+33,r24
 6051 00be DE01      		movw r26,r28
 6052 00c0 9296      		adiw r26,34
 6053 00c2 FE01      		movw r30,r28
 6054 00c4 F896      		adiw r30,56
 6055 00c6 9F01      		movw r18,r30
 6056 00c8 2A5E      		subi r18,lo8(-(22))
 6057 00ca 3F4F      		sbci r19,hi8(-(22))
 6058 00cc 00C0      		rjmp .L370
 6059               	.L371:
 6060 00ce 8D91      		ld r24,X+
 6061 00d0 9D91      		ld r25,X+
 6062 00d2 8193      		st Z+,r24
 6063 00d4 9193      		st Z+,r25
 6064               	.L370:
 6065 00d6 E217      		cp r30,r18
 6066 00d8 F307      		cpc r31,r19
 6067 00da 01F4      		brne .L371
 6068 00dc 8E01      		movw r16,r28
 6069 00de 085C      		subi r16,lo8(-(56))
 6070 00e0 1F4F      		sbci r17,hi8(-(56))
 6071 00e2 C801      		movw r24,r16
 6072 00e4 B601      		movw r22,r12
 6073 00e6 0E94 0000 		call follow_path
 6074 00ea 8823      		tst r24
 6075 00ec 01F4      		brne .L372
 6076 00ee 88E0      		ldi r24,lo8(8)
 6077 00f0 00C0      		rjmp .L365
 6078               	.L372:
 6079 00f2 8430      		cpi r24,lo8(4)
 6080 00f4 01F0      		breq .+2
 6081 00f6 00C0      		rjmp .L365
 6082 00f8 C801      		movw r24,r16
 6083 00fa 0E94 0000 		call dir_register
 6084 00fe 8823      		tst r24
 6085 0100 01F0      		breq .+2
 6086 0102 00C0      		rjmp .L365
 6087 0104 FE01      		movw r30,r28
 6088 0106 E65B      		subi r30,lo8(-(74))
 6089 0108 FF4F      		sbci r31,hi8(-(74))
 6090 010a 6081      		ld r22,Z
 6091 010c 7181      		ldd r23,Z+1
 6092 010e 9B01      		movw r18,r22
 6093 0110 235F      		subi r18,lo8(-(13))
 6094 0112 3F4F      		sbci r19,hi8(-(13))
 6095 0114 DB01      		movw r26,r22
 6096 0116 FE01      		movw r30,r28
 6097 0118 3F96      		adiw r30,15
 6098 011a 00C0      		rjmp .L373
 6099               	.L374:
 6100 011c 8191      		ld r24,Z+
 6101 011e 9191      		ld r25,Z+
 6102 0120 1C96      		adiw r26,11+1
 6103 0122 9C93      		st X,r25
 6104 0124 8E93      		st -X,r24
 6105 0126 1B97      		sbiw r26,11
 6106               	.L373:
 6107 0128 1296      		adiw r26,2
 6108 012a EE15      		cp r30,r14
 6109 012c FF05      		cpc r31,r15
 6110 012e 01F4      		brne .L374
 6111 0130 89A1      		ldd r24,Y+33
 6112 0132 F901      		movw r30,r18
 6113 0134 828B      		std Z+18,r24
 6114 0136 8D85      		ldd r24,Y+13
 6115 0138 8062      		ori r24,lo8(32)
 6116 013a DB01      		movw r26,r22
 6117 013c 1B96      		adiw r26,11
 6118 013e 8C93      		st X,r24
 6119 0140 EAA1      		ldd r30,Y+34
 6120 0142 FBA1      		ldd r31,Y+35
 6121 0144 81E0      		ldi r24,lo8(1)
 6122 0146 8483      		std Z+4,r24
 6123 0148 EEE3      		ldi r30,lo8(62)
 6124 014a AE2E      		mov r10,r30
 6125 014c B12C      		mov r11,__zero_reg__
 6126 014e AC0E      		add r10,r28
 6127 0150 BD1E      		adc r11,r29
 6128 0152 28A5      		ldd r18,Y+40
 6129 0154 39A5      		ldd r19,Y+41
 6130 0156 4AA5      		ldd r20,Y+42
 6131 0158 5BA5      		ldd r21,Y+43
 6132 015a F501      		movw r30,r10
 6133 015c 8081      		ld r24,Z
 6134 015e 9181      		ldd r25,Z+1
 6135 0160 A281      		ldd r26,Z+2
 6136 0162 B381      		ldd r27,Z+3
 6137 0164 2817      		cp r18,r24
 6138 0166 3907      		cpc r19,r25
 6139 0168 4A07      		cpc r20,r26
 6140 016a 5B07      		cpc r21,r27
 6141 016c 01F4      		brne .+2
 6142 016e 00C0      		rjmp .L375
 6143 0170 DB01      		movw r26,r22
 6144 0172 1B96      		adiw r26,11
 6145 0174 8C91      		ld r24,X
 6146 0176 1B97      		sbiw r26,11
 6147 0178 84FF      		sbrs r24,4
 6148 017a 00C0      		rjmp .L375
 6149 017c C8AC      		ldd r12,Y+56
 6150 017e D9AC      		ldd r13,Y+57
 6151 0180 5A96      		adiw r26,26
 6152 0182 8D91      		ld r24,X+
 6153 0184 9C91      		ld r25,X
 6154 0186 5B97      		sbiw r26,26+1
 6155 0188 5496      		adiw r26,20
 6156 018a 2D91      		ld r18,X+
 6157 018c 3C91      		ld r19,X
 6158 018e 5597      		sbiw r26,20+1
 6159 0190 822B      		or r24,r18
 6160 0192 932B      		or r25,r19
 6161 0194 7C01      		movw r14,r24
 6162 0196 00E0      		ldi r16,lo8(0)
 6163 0198 10E0      		ldi r17,hi8(0)
 6164 019a 8EEF      		ldi r24,lo8(-2)
 6165 019c 9FEF      		ldi r25,hi8(-2)
 6166 019e AFEF      		ldi r26,hlo8(-2)
 6167 01a0 BFEF      		ldi r27,hhi8(-2)
 6168 01a2 E80E      		add r14,r24
 6169 01a4 F91E      		adc r15,r25
 6170 01a6 0A1F      		adc r16,r26
 6171 01a8 1B1F      		adc r17,r27
 6172 01aa F601      		movw r30,r12
 6173 01ac 828D      		ldd r24,Z+26
 6174 01ae 938D      		ldd r25,Z+27
 6175 01b0 A48D      		ldd r26,Z+28
 6176 01b2 B58D      		ldd r27,Z+29
 6177 01b4 0297      		sbiw r24,2
 6178 01b6 A109      		sbc r26,__zero_reg__
 6179 01b8 B109      		sbc r27,__zero_reg__
 6180 01ba E816      		cp r14,r24
 6181 01bc F906      		cpc r15,r25
 6182 01be 0A07      		cpc r16,r26
 6183 01c0 1B07      		cpc r17,r27
 6184 01c2 00F0      		brlo .+2
 6185 01c4 00C0      		rjmp .L376
 6186 01c6 2281      		ldd r18,Z+2
 6187 01c8 30E0      		ldi r19,lo8(0)
 6188 01ca 40E0      		ldi r20,lo8(0)
 6189 01cc 50E0      		ldi r21,hi8(0)
 6190 01ce C801      		movw r24,r16
 6191 01d0 B701      		movw r22,r14
 6192 01d2 0E94 0000 		call __mulsi3
 6193 01d6 AB01      		movw r20,r22
 6194 01d8 BC01      		movw r22,r24
 6195 01da F601      		movw r30,r12
 6196 01dc 82A5      		ldd r24,Z+42
 6197 01de 93A5      		ldd r25,Z+43
 6198 01e0 A4A5      		ldd r26,Z+44
 6199 01e2 B5A5      		ldd r27,Z+45
 6200 01e4 480F      		add r20,r24
 6201 01e6 591F      		adc r21,r25
 6202 01e8 6A1F      		adc r22,r26
 6203 01ea 7B1F      		adc r23,r27
 6204 01ec 4115      		cp r20,__zero_reg__
 6205 01ee 5105      		cpc r21,__zero_reg__
 6206 01f0 6105      		cpc r22,__zero_reg__
 6207 01f2 7105      		cpc r23,__zero_reg__
 6208 01f4 01F4      		brne .+2
 6209 01f6 00C0      		rjmp .L376
 6210 01f8 C601      		movw r24,r12
 6211 01fa 0E94 0000 		call move_window
 6212 01fe 08AD      		ldd r16,Y+56
 6213 0200 19AD      		ldd r17,Y+57
 6214 0202 8823      		tst r24
 6215 0204 01F4      		brne .L365
 6216 0206 B801      		movw r22,r16
 6217 0208 6E5A      		subi r22,lo8(-(82))
 6218 020a 7F4F      		sbci r23,hi8(-(82))
 6219 020c DB01      		movw r26,r22
 6220 020e 1196      		adiw r26,1
 6221 0210 8C91      		ld r24,X
 6222 0212 8E32      		cpi r24,lo8(46)
 6223 0214 01F4      		brne .L375
 6224 0216 F801      		movw r30,r16
 6225 0218 8081      		ld r24,Z
 6226 021a 8330      		cpi r24,lo8(3)
 6227 021c 01F4      		brne .L377
 6228 021e D501      		movw r26,r10
 6229 0220 2D91      		ld r18,X+
 6230 0222 3D91      		ld r19,X+
 6231 0224 4D91      		ld r20,X+
 6232 0226 5C91      		ld r21,X
 6233 0228 86A1      		ldd r24,Z+38
 6234 022a 97A1      		ldd r25,Z+39
 6235 022c A0A5      		ldd r26,Z+40
 6236 022e B1A5      		ldd r27,Z+41
 6237 0230 2817      		cp r18,r24
 6238 0232 3907      		cpc r19,r25
 6239 0234 4A07      		cpc r20,r26
 6240 0236 5B07      		cpc r21,r27
 6241 0238 01F4      		brne .L377
 6242 023a 80E0      		ldi r24,lo8(0)
 6243 023c 90E0      		ldi r25,hi8(0)
 6244 023e A0E0      		ldi r26,hlo8(0)
 6245 0240 B0E0      		ldi r27,hhi8(0)
 6246 0242 00C0      		rjmp .L378
 6247               	.L377:
 6248 0244 FE01      		movw r30,r28
 6249 0246 FE96      		adiw r30,62
 6250 0248 8081      		ld r24,Z
 6251 024a 9181      		ldd r25,Z+1
 6252 024c A281      		ldd r26,Z+2
 6253 024e B381      		ldd r27,Z+3
 6254               	.L378:
 6255 0250 FB01      		movw r30,r22
 6256 0252 938F      		std Z+27,r25
 6257 0254 828F      		std Z+26,r24
 6258 0256 CD01      		movw r24,r26
 6259 0258 AA27      		clr r26
 6260 025a BB27      		clr r27
 6261 025c 958B      		std Z+21,r25
 6262 025e 848B      		std Z+20,r24
 6263 0260 81E0      		ldi r24,lo8(1)
 6264 0262 D801      		movw r26,r16
 6265 0264 1496      		adiw r26,4
 6266 0266 8C93      		st X,r24
 6267               	.L375:
 6268 0268 CE01      		movw r24,r28
 6269 026a 8296      		adiw r24,34
 6270 026c 0E94 0000 		call dir_remove
 6271 0270 8823      		tst r24
 6272 0272 01F4      		brne .L365
 6273 0274 8AA1      		ldd r24,Y+34
 6274 0276 9BA1      		ldd r25,Y+35
 6275 0278 0E94 0000 		call sync
 6276 027c 00C0      		rjmp .L365
 6277               	.L376:
 6278 027e 82E0      		ldi r24,lo8(2)
 6279               	.L365:
 6280               	/* epilogue start */
 6281 0280 C15B      		subi r28,lo8(-(79))
 6282 0282 DF4F      		sbci r29,hi8(-(79))
 6283 0284 0FB6      		in __tmp_reg__,__SREG__
 6284 0286 F894      		cli
 6285 0288 DEBF      		out __SP_H__,r29
 6286 028a 0FBE      		out __SREG__,__tmp_reg__
 6287 028c CDBF      		out __SP_L__,r28
 6288 028e CF91      		pop r28
 6289 0290 DF91      		pop r29
 6290 0292 1F91      		pop r17
 6291 0294 0F91      		pop r16
 6292 0296 FF90      		pop r15
 6293 0298 EF90      		pop r14
 6294 029a DF90      		pop r13
 6295 029c CF90      		pop r12
 6296 029e BF90      		pop r11
 6297 02a0 AF90      		pop r10
 6298 02a2 0895      		ret
 6300               		.section	.text.dir_read,"ax",@progbits
 6302               	dir_read:
 6303 0000 CF93      		push r28
 6304 0002 DF93      		push r29
 6305               	/* prologue: function */
 6306               	/* frame size = 0 */
 6307 0004 EC01      		movw r28,r24
 6308 0006 94E0      		ldi r25,lo8(4)
 6309 0008 00C0      		rjmp .L381
 6310               	.L386:
 6311 000a 8881      		ld r24,Y
 6312 000c 9981      		ldd r25,Y+1
 6313 000e 0E94 0000 		call move_window
 6314 0012 982F      		mov r25,r24
 6315 0014 8823      		tst r24
 6316 0016 01F4      		brne .L382
 6317 0018 EA89      		ldd r30,Y+18
 6318 001a FB89      		ldd r31,Y+19
 6319 001c 8081      		ld r24,Z
 6320 001e 8823      		tst r24
 6321 0020 01F0      		breq .L383
 6322 0022 853E      		cpi r24,lo8(-27)
 6323 0024 01F0      		breq .L384
 6324 0026 8385      		ldd r24,Z+11
 6325 0028 83FF      		sbrs r24,3
 6326 002a 00C0      		rjmp .L385
 6327               	.L384:
 6328 002c CE01      		movw r24,r28
 6329 002e 60E0      		ldi r22,lo8(0)
 6330 0030 70E0      		ldi r23,hi8(0)
 6331 0032 0E94 0000 		call dir_next
 6332 0036 982F      		mov r25,r24
 6333 0038 8823      		tst r24
 6334 003a 01F4      		brne .L382
 6335               	.L381:
 6336 003c 4E85      		ldd r20,Y+14
 6337 003e 5F85      		ldd r21,Y+15
 6338 0040 6889      		ldd r22,Y+16
 6339 0042 7989      		ldd r23,Y+17
 6340 0044 4115      		cp r20,__zero_reg__
 6341 0046 5105      		cpc r21,__zero_reg__
 6342 0048 6105      		cpc r22,__zero_reg__
 6343 004a 7105      		cpc r23,__zero_reg__
 6344 004c 01F4      		brne .L386
 6345 004e 9923      		tst r25
 6346 0050 01F0      		breq .L385
 6347               	.L382:
 6348 0052 1E86      		std Y+14,__zero_reg__
 6349 0054 1F86      		std Y+15,__zero_reg__
 6350 0056 188A      		std Y+16,__zero_reg__
 6351 0058 198A      		std Y+17,__zero_reg__
 6352               	.L385:
 6353 005a 892F      		mov r24,r25
 6354               	/* epilogue start */
 6355 005c DF91      		pop r29
 6356 005e CF91      		pop r28
 6357 0060 0895      		ret
 6358               	.L383:
 6359 0062 94E0      		ldi r25,lo8(4)
 6360 0064 00C0      		rjmp .L382
 6362               		.section	.text.f_readdir,"ax",@progbits
 6363               	.global	f_readdir
 6365               	f_readdir:
 6366 0000 EF92      		push r14
 6367 0002 FF92      		push r15
 6368 0004 0F93      		push r16
 6369 0006 1F93      		push r17
 6370 0008 DF93      		push r29
 6371 000a CF93      		push r28
 6372 000c CDB7      		in r28,__SP_L__
 6373 000e DEB7      		in r29,__SP_H__
 6374 0010 2C97      		sbiw r28,12
 6375 0012 0FB6      		in __tmp_reg__,__SREG__
 6376 0014 F894      		cli
 6377 0016 DEBF      		out __SP_H__,r29
 6378 0018 0FBE      		out __SREG__,__tmp_reg__
 6379 001a CDBF      		out __SP_L__,r28
 6380               	/* prologue: function */
 6381               	/* frame size = 12 */
 6382 001c 8C01      		movw r16,r24
 6383 001e 7B01      		movw r14,r22
 6384 0020 FC01      		movw r30,r24
 6385 0022 6281      		ldd r22,Z+2
 6386 0024 7381      		ldd r23,Z+3
 6387 0026 8081      		ld r24,Z
 6388 0028 9181      		ldd r25,Z+1
 6389 002a 0E94 0000 		call validate
 6390 002e 8823      		tst r24
 6391 0030 01F4      		brne .L390
 6392 0032 E114      		cp r14,__zero_reg__
 6393 0034 F104      		cpc r15,__zero_reg__
 6394 0036 01F4      		brne .L391
 6395 0038 C801      		movw r24,r16
 6396 003a 60E0      		ldi r22,lo8(0)
 6397 003c 70E0      		ldi r23,hi8(0)
 6398 003e 0E94 0000 		call dir_sdi
 6399 0042 00C0      		rjmp .L390
 6400               	.L391:
 6401 0044 CE01      		movw r24,r28
 6402 0046 0196      		adiw r24,1
 6403 0048 F801      		movw r30,r16
 6404 004a 958B      		std Z+21,r25
 6405 004c 848B      		std Z+20,r24
 6406 004e C801      		movw r24,r16
 6407 0050 0E94 0000 		call dir_read
 6408 0054 8430      		cpi r24,lo8(4)
 6409 0056 01F4      		brne .L392
 6410 0058 F801      		movw r30,r16
 6411 005a 1686      		std Z+14,__zero_reg__
 6412 005c 1786      		std Z+15,__zero_reg__
 6413 005e 108A      		std Z+16,__zero_reg__
 6414 0060 118A      		std Z+17,__zero_reg__
 6415 0062 00C0      		rjmp .L393
 6416               	.L392:
 6417 0064 8823      		tst r24
 6418 0066 01F4      		brne .L390
 6419               	.L393:
 6420 0068 C801      		movw r24,r16
 6421 006a B701      		movw r22,r14
 6422 006c 0E94 0000 		call get_fileinfo
 6423 0070 C801      		movw r24,r16
 6424 0072 60E0      		ldi r22,lo8(0)
 6425 0074 70E0      		ldi r23,hi8(0)
 6426 0076 0E94 0000 		call dir_next
 6427 007a 8430      		cpi r24,lo8(4)
 6428 007c 01F4      		brne .L390
 6429 007e F801      		movw r30,r16
 6430 0080 1686      		std Z+14,__zero_reg__
 6431 0082 1786      		std Z+15,__zero_reg__
 6432 0084 108A      		std Z+16,__zero_reg__
 6433 0086 118A      		std Z+17,__zero_reg__
 6434 0088 80E0      		ldi r24,lo8(0)
 6435               	.L390:
 6436               	/* epilogue start */
 6437 008a 2C96      		adiw r28,12
 6438 008c 0FB6      		in __tmp_reg__,__SREG__
 6439 008e F894      		cli
 6440 0090 DEBF      		out __SP_H__,r29
 6441 0092 0FBE      		out __SREG__,__tmp_reg__
 6442 0094 CDBF      		out __SP_L__,r28
 6443 0096 CF91      		pop r28
 6444 0098 DF91      		pop r29
 6445 009a 1F91      		pop r17
 6446 009c 0F91      		pop r16
 6447 009e FF90      		pop r15
 6448 00a0 EF90      		pop r14
 6449 00a2 0895      		ret
 6451               		.section	.text.f_unlink,"ax",@progbits
 6452               	.global	f_unlink
 6454               	f_unlink:
 6455 0000 CF92      		push r12
 6456 0002 DF92      		push r13
 6457 0004 EF92      		push r14
 6458 0006 FF92      		push r15
 6459 0008 0F93      		push r16
 6460 000a 1F93      		push r17
 6461 000c DF93      		push r29
 6462 000e CF93      		push r28
 6463 0010 CDB7      		in r28,__SP_L__
 6464 0012 DEB7      		in r29,__SP_H__
 6465 0014 EA97      		sbiw r28,58
 6466 0016 0FB6      		in __tmp_reg__,__SREG__
 6467 0018 F894      		cli
 6468 001a DEBF      		out __SP_H__,r29
 6469 001c 0FBE      		out __SREG__,__tmp_reg__
 6470 001e CDBF      		out __SP_L__,r28
 6471               	/* prologue: function */
 6472               	/* frame size = 58 */
 6473 0020 9AAF      		std Y+58,r25
 6474 0022 89AF      		std Y+57,r24
 6475 0024 8E01      		movw r16,r28
 6476 0026 035F      		subi r16,lo8(-(13))
 6477 0028 1F4F      		sbci r17,hi8(-(13))
 6478 002a CE01      		movw r24,r28
 6479 002c C996      		adiw r24,57
 6480 002e B801      		movw r22,r16
 6481 0030 41E0      		ldi r20,lo8(1)
 6482 0032 0E94 0000 		call chk_mounted
 6483 0036 282F      		mov r18,r24
 6484 0038 8823      		tst r24
 6485 003a 01F0      		breq .+2
 6486 003c 00C0      		rjmp .L396
 6487 003e CE01      		movw r24,r28
 6488 0040 0196      		adiw r24,1
 6489 0042 9AA3      		std Y+34,r25
 6490 0044 89A3      		std Y+33,r24
 6491 0046 69AD      		ldd r22,Y+57
 6492 0048 7AAD      		ldd r23,Y+58
 6493 004a C801      		movw r24,r16
 6494 004c 0E94 0000 		call follow_path
 6495 0050 282F      		mov r18,r24
 6496 0052 8823      		tst r24
 6497 0054 01F0      		breq .+2
 6498 0056 00C0      		rjmp .L396
 6499 0058 E9A1      		ldd r30,Y+33
 6500 005a FAA1      		ldd r31,Y+34
 6501 005c 8385      		ldd r24,Z+11
 6502 005e 85FF      		sbrs r24,5
 6503 0060 00C0      		rjmp .L397
 6504 0062 26E0      		ldi r18,lo8(6)
 6505 0064 00C0      		rjmp .L396
 6506               	.L397:
 6507 0066 EF8D      		ldd r30,Y+31
 6508 0068 F8A1      		ldd r31,Y+32
 6509 006a 3097      		sbiw r30,0
 6510 006c 01F4      		brne .L398
 6511 006e 26E0      		ldi r18,lo8(6)
 6512 0070 00C0      		rjmp .L399
 6513               	.L398:
 6514 0072 8385      		ldd r24,Z+11
 6515 0074 80FD      		sbrc r24,0
 6516 0076 27E0      		ldi r18,lo8(7)
 6517               	.L399:
 6518 0078 8489      		ldd r24,Z+20
 6519 007a 9589      		ldd r25,Z+21
 6520 007c 428D      		ldd r20,Z+26
 6521 007e 538D      		ldd r21,Z+27
 6522 0080 2223      		tst r18
 6523 0082 01F0      		breq .+2
 6524 0084 00C0      		rjmp .L396
 6525 0086 A0E0      		ldi r26,lo8(0)
 6526 0088 B0E0      		ldi r27,hi8(0)
 6527 008a 8C01      		movw r16,r24
 6528 008c FF24      		clr r15
 6529 008e EE24      		clr r14
 6530 0090 CA01      		movw r24,r20
 6531 0092 A0E0      		ldi r26,lo8(0)
 6532 0094 B0E0      		ldi r27,hi8(0)
 6533 0096 E82A      		or r14,r24
 6534 0098 F92A      		or r15,r25
 6535 009a 0A2B      		or r16,r26
 6536 009c 1B2B      		or r17,r27
 6537 009e 8385      		ldd r24,Z+11
 6538 00a0 84FF      		sbrs r24,4
 6539 00a2 00C0      		rjmp .L400
 6540 00a4 82E0      		ldi r24,lo8(2)
 6541 00a6 E816      		cp r14,r24
 6542 00a8 F104      		cpc r15,__zero_reg__
 6543 00aa 0105      		cpc r16,__zero_reg__
 6544 00ac 1105      		cpc r17,__zero_reg__
 6545 00ae 00F4      		brsh .L401
 6546 00b0 22E0      		ldi r18,lo8(2)
 6547 00b2 00C0      		rjmp .L396
 6548               	.L401:
 6549 00b4 DE01      		movw r26,r28
 6550 00b6 1D96      		adiw r26,13
 6551 00b8 FE01      		movw r30,r28
 6552 00ba B396      		adiw r30,35
 6553 00bc 9E01      		movw r18,r28
 6554 00be 275C      		subi r18,lo8(-(57))
 6555 00c0 3F4F      		sbci r19,hi8(-(57))
 6556 00c2 00C0      		rjmp .L402
 6557               	.L403:
 6558 00c4 8D91      		ld r24,X+
 6559 00c6 9D91      		ld r25,X+
 6560 00c8 8193      		st Z+,r24
 6561 00ca 9193      		st Z+,r25
 6562               	.L402:
 6563 00cc E217      		cp r30,r18
 6564 00ce F307      		cpc r31,r19
 6565 00d0 01F4      		brne .L403
 6566 00d2 E9A6      		std Y+41,r14
 6567 00d4 FAA6      		std Y+42,r15
 6568 00d6 0BA7      		std Y+43,r16
 6569 00d8 1CA7      		std Y+44,r17
 6570 00da 93E2      		ldi r25,lo8(35)
 6571 00dc C92E      		mov r12,r25
 6572 00de D12C      		mov r13,__zero_reg__
 6573 00e0 CC0E      		add r12,r28
 6574 00e2 DD1E      		adc r13,r29
 6575 00e4 C601      		movw r24,r12
 6576 00e6 62E0      		ldi r22,lo8(2)
 6577 00e8 70E0      		ldi r23,hi8(2)
 6578 00ea 0E94 0000 		call dir_sdi
 6579 00ee 282F      		mov r18,r24
 6580 00f0 8823      		tst r24
 6581 00f2 01F4      		brne .L396
 6582 00f4 C601      		movw r24,r12
 6583 00f6 0E94 0000 		call dir_read
 6584 00fa 282F      		mov r18,r24
 6585 00fc 8823      		tst r24
 6586 00fe 01F0      		breq .L404
 6587 0100 EBA1      		ldd r30,Y+35
 6588 0102 FCA1      		ldd r31,Y+36
 6589 0104 8689      		ldd r24,Z+22
 6590 0106 9789      		ldd r25,Z+23
 6591 0108 A08D      		ldd r26,Z+24
 6592 010a B18D      		ldd r27,Z+25
 6593 010c E816      		cp r14,r24
 6594 010e F906      		cpc r15,r25
 6595 0110 0A07      		cpc r16,r26
 6596 0112 1B07      		cpc r17,r27
 6597 0114 01F0      		breq .L404
 6598 0116 2430      		cpi r18,lo8(4)
 6599 0118 01F0      		breq .L400
 6600 011a 00C0      		rjmp .L396
 6601               	.L406:
 6602 011c E114      		cp r14,__zero_reg__
 6603 011e F104      		cpc r15,__zero_reg__
 6604 0120 0105      		cpc r16,__zero_reg__
 6605 0122 1105      		cpc r17,__zero_reg__
 6606 0124 01F0      		breq .L405
 6607 0126 8D85      		ldd r24,Y+13
 6608 0128 9E85      		ldd r25,Y+14
 6609 012a B801      		movw r22,r16
 6610 012c A701      		movw r20,r14
 6611 012e 0E94 0000 		call remove_chain
 6612 0132 282F      		mov r18,r24
 6613 0134 8823      		tst r24
 6614 0136 01F4      		brne .L396
 6615               	.L405:
 6616 0138 8D85      		ldd r24,Y+13
 6617 013a 9E85      		ldd r25,Y+14
 6618 013c 0E94 0000 		call sync
 6619 0140 282F      		mov r18,r24
 6620               	.L396:
 6621 0142 822F      		mov r24,r18
 6622               	/* epilogue start */
 6623 0144 EA96      		adiw r28,58
 6624 0146 0FB6      		in __tmp_reg__,__SREG__
 6625 0148 F894      		cli
 6626 014a DEBF      		out __SP_H__,r29
 6627 014c 0FBE      		out __SREG__,__tmp_reg__
 6628 014e CDBF      		out __SP_L__,r28
 6629 0150 CF91      		pop r28
 6630 0152 DF91      		pop r29
 6631 0154 1F91      		pop r17
 6632 0156 0F91      		pop r16
 6633 0158 FF90      		pop r15
 6634 015a EF90      		pop r14
 6635 015c DF90      		pop r13
 6636 015e CF90      		pop r12
 6637 0160 0895      		ret
 6638               	.L404:
 6639 0162 27E0      		ldi r18,lo8(7)
 6640 0164 00C0      		rjmp .L396
 6641               	.L400:
 6642 0166 CE01      		movw r24,r28
 6643 0168 0D96      		adiw r24,13
 6644 016a 0E94 0000 		call dir_remove
 6645 016e 282F      		mov r18,r24
 6646 0170 8823      		tst r24
 6647 0172 01F0      		breq .L406
 6648 0174 00C0      		rjmp .L396
 6650               		.section	.text.f_write,"ax",@progbits
 6651               	.global	f_write
 6653               	f_write:
 6654 0000 2F92      		push r2
 6655 0002 3F92      		push r3
 6656 0004 4F92      		push r4
 6657 0006 5F92      		push r5
 6658 0008 6F92      		push r6
 6659 000a 7F92      		push r7
 6660 000c 8F92      		push r8
 6661 000e 9F92      		push r9
 6662 0010 AF92      		push r10
 6663 0012 BF92      		push r11
 6664 0014 CF92      		push r12
 6665 0016 DF92      		push r13
 6666 0018 EF92      		push r14
 6667 001a FF92      		push r15
 6668 001c 0F93      		push r16
 6669 001e 1F93      		push r17
 6670 0020 DF93      		push r29
 6671 0022 CF93      		push r28
 6672 0024 00D0      		rcall .
 6673 0026 00D0      		rcall .
 6674 0028 CDB7      		in r28,__SP_L__
 6675 002a DEB7      		in r29,__SP_H__
 6676               	/* prologue: function */
 6677               	/* frame size = 4 */
 6678 002c 9C83      		std Y+4,r25
 6679 002e 8B83      		std Y+3,r24
 6680 0030 162F      		mov r17,r22
 6681 0032 072F      		mov r16,r23
 6682 0034 3A01      		movw r6,r20
 6683 0036 3A83      		std Y+2,r19
 6684 0038 2983      		std Y+1,r18
 6685 003a D901      		movw r26,r18
 6686 003c 1D92      		st X+,__zero_reg__
 6687 003e 1C92      		st X,__zero_reg__
 6688 0040 FC01      		movw r30,r24
 6689 0042 6281      		ldd r22,Z+2
 6690 0044 7381      		ldd r23,Z+3
 6691 0046 8081      		ld r24,Z
 6692 0048 9181      		ldd r25,Z+1
 6693 004a 0E94 0000 		call validate
 6694 004e 582E      		mov r5,r24
 6695 0050 8823      		tst r24
 6696 0052 01F0      		breq .+2
 6697 0054 00C0      		rjmp .L409
 6698 0056 AB81      		ldd r26,Y+3
 6699 0058 BC81      		ldd r27,Y+4
 6700 005a 1496      		adiw r26,4
 6701 005c 8C91      		ld r24,X
 6702 005e 87FD      		sbrc r24,7
 6703 0060 00C0      		rjmp .L443
 6704               	.L410:
 6705 0062 81FD      		sbrc r24,1
 6706 0064 00C0      		rjmp .L411
 6707 0066 07E0      		ldi r16,lo8(7)
 6708 0068 502E      		mov r5,r16
 6709 006a 00C0      		rjmp .L409
 6710               	.L411:
 6711 006c EB81      		ldd r30,Y+3
 6712 006e FC81      		ldd r31,Y+4
 6713 0070 2285      		ldd r18,Z+10
 6714 0072 3385      		ldd r19,Z+11
 6715 0074 4485      		ldd r20,Z+12
 6716 0076 5585      		ldd r21,Z+13
 6717 0078 C301      		movw r24,r6
 6718 007a A0E0      		ldi r26,lo8(0)
 6719 007c B0E0      		ldi r27,hi8(0)
 6720 007e 820F      		add r24,r18
 6721 0080 931F      		adc r25,r19
 6722 0082 A41F      		adc r26,r20
 6723 0084 B51F      		adc r27,r21
 6724 0086 8217      		cp r24,r18
 6725 0088 9307      		cpc r25,r19
 6726 008a A407      		cpc r26,r20
 6727 008c B507      		cpc r27,r21
 6728 008e 00F4      		brsh .L412
 6729 0090 6624      		clr r6
 6730 0092 7724      		clr r7
 6731               	.L412:
 6732 0094 812F      		mov r24,r17
 6733 0096 902F      		mov r25,r16
 6734 0098 9C01      		movw r18,r24
 6735 009a 1901      		movw r2,r18
 6736 009c 4424      		clr r4
 6737 009e 4394      		inc r4
 6738 00a0 00C0      		rjmp .L413
 6739               	.L440:
 6740 00a2 AB81      		ldd r26,Y+3
 6741 00a4 BC81      		ldd r27,Y+4
 6742 00a6 1696      		adiw r26,6
 6743 00a8 2D91      		ld r18,X+
 6744 00aa 3D91      		ld r19,X+
 6745 00ac 4D91      		ld r20,X+
 6746 00ae 5C91      		ld r21,X
 6747 00b0 1997      		sbiw r26,6+3
 6748 00b2 DA01      		movw r26,r20
 6749 00b4 C901      		movw r24,r18
 6750 00b6 9170      		andi r25,hi8(511)
 6751 00b8 A070      		andi r26,hlo8(511)
 6752 00ba B070      		andi r27,hhi8(511)
 6753 00bc 0097      		sbiw r24,0
 6754 00be A105      		cpc r26,__zero_reg__
 6755 00c0 B105      		cpc r27,__zero_reg__
 6756 00c2 01F0      		breq .+2
 6757 00c4 00C0      		rjmp .L414
 6758 00c6 AB81      		ldd r26,Y+3
 6759 00c8 BC81      		ldd r27,Y+4
 6760 00ca ED91      		ld r30,X+
 6761 00cc FC91      		ld r31,X
 6762 00ce DA01      		movw r26,r20
 6763 00d0 C901      		movw r24,r18
 6764 00d2 19E0      		ldi r17,9
 6765 00d4 B695      	1:	lsr r27
 6766 00d6 A795      		ror r26
 6767 00d8 9795      		ror r25
 6768 00da 8795      		ror r24
 6769 00dc 1A95      		dec r17
 6770 00de 01F4      		brne 1b
 6771 00e0 9280      		ldd r9,Z+2
 6772 00e2 9A94      		dec r9
 6773 00e4 9822      		and r9,r24
 6774 00e6 01F0      		breq .+2
 6775 00e8 00C0      		rjmp .L415
 6776 00ea 2115      		cp r18,__zero_reg__
 6777 00ec 3105      		cpc r19,__zero_reg__
 6778 00ee 4105      		cpc r20,__zero_reg__
 6779 00f0 5105      		cpc r21,__zero_reg__
 6780 00f2 01F4      		brne .L416
 6781 00f4 AB81      		ldd r26,Y+3
 6782 00f6 BC81      		ldd r27,Y+4
 6783 00f8 1E96      		adiw r26,14
 6784 00fa 6D91      		ld r22,X+
 6785 00fc 7D91      		ld r23,X+
 6786 00fe 8D91      		ld r24,X+
 6787 0100 9C91      		ld r25,X
 6788 0102 5197      		sbiw r26,14+3
 6789 0104 6115      		cp r22,__zero_reg__
 6790 0106 7105      		cpc r23,__zero_reg__
 6791 0108 8105      		cpc r24,__zero_reg__
 6792 010a 9105      		cpc r25,__zero_reg__
 6793 010c 01F4      		brne .L417
 6794 010e CF01      		movw r24,r30
 6795 0110 40E0      		ldi r20,lo8(0)
 6796 0112 50E0      		ldi r21,hi8(0)
 6797 0114 60E0      		ldi r22,hlo8(0)
 6798 0116 70E0      		ldi r23,hhi8(0)
 6799 0118 0E94 0000 		call create_chain
 6800 011c EB81      		ldd r30,Y+3
 6801 011e FC81      		ldd r31,Y+4
 6802 0120 6687      		std Z+14,r22
 6803 0122 7787      		std Z+15,r23
 6804 0124 808B      		std Z+16,r24
 6805 0126 918B      		std Z+17,r25
 6806 0128 00C0      		rjmp .L418
 6807               	.L416:
 6808 012a AB81      		ldd r26,Y+3
 6809 012c BC81      		ldd r27,Y+4
 6810 012e 5296      		adiw r26,18
 6811 0130 4D91      		ld r20,X+
 6812 0132 5D91      		ld r21,X+
 6813 0134 6D91      		ld r22,X+
 6814 0136 7C91      		ld r23,X
 6815 0138 5597      		sbiw r26,18+3
 6816 013a CF01      		movw r24,r30
 6817 013c 0E94 0000 		call create_chain
 6818               	.L418:
 6819 0140 6115      		cp r22,__zero_reg__
 6820 0142 7105      		cpc r23,__zero_reg__
 6821 0144 8105      		cpc r24,__zero_reg__
 6822 0146 9105      		cpc r25,__zero_reg__
 6823 0148 01F4      		brne .+2
 6824 014a 00C0      		rjmp .L419
 6825               	.L417:
 6826 014c 6130      		cpi r22,lo8(1)
 6827 014e 7105      		cpc r23,__zero_reg__
 6828 0150 8105      		cpc r24,__zero_reg__
 6829 0152 9105      		cpc r25,__zero_reg__
 6830 0154 01F4      		brne .L420
 6831 0156 EB81      		ldd r30,Y+3
 6832 0158 FC81      		ldd r31,Y+4
 6833 015a 8481      		ldd r24,Z+4
 6834 015c 8068      		ori r24,lo8(-128)
 6835 015e 8483      		std Z+4,r24
 6836               	.L443:
 6837 0160 E2E0      		ldi r30,lo8(2)
 6838 0162 5E2E      		mov r5,r30
 6839 0164 00C0      		rjmp .L409
 6840               	.L420:
 6841 0166 6F3F      		cpi r22,lo8(-1)
 6842 0168 FFEF      		ldi r31,hi8(-1)
 6843 016a 7F07      		cpc r23,r31
 6844 016c FFEF      		ldi r31,hlo8(-1)
 6845 016e 8F07      		cpc r24,r31
 6846 0170 FFEF      		ldi r31,hhi8(-1)
 6847 0172 9F07      		cpc r25,r31
 6848 0174 01F4      		brne .+2
 6849 0176 00C0      		rjmp .L445
 6850               	.L421:
 6851 0178 EB81      		ldd r30,Y+3
 6852 017a FC81      		ldd r31,Y+4
 6853 017c 628B      		std Z+18,r22
 6854 017e 738B      		std Z+19,r23
 6855 0180 848B      		std Z+20,r24
 6856 0182 958B      		std Z+21,r25
 6857               	.L415:
 6858 0184 AB81      		ldd r26,Y+3
 6859 0186 BC81      		ldd r27,Y+4
 6860 0188 ED91      		ld r30,X+
 6861 018a FC91      		ld r31,X
 6862 018c 1197      		sbiw r26,1
 6863 018e 26A5      		ldd r18,Z+46
 6864 0190 37A5      		ldd r19,Z+47
 6865 0192 40A9      		ldd r20,Z+48
 6866 0194 51A9      		ldd r21,Z+49
 6867 0196 5696      		adiw r26,22
 6868 0198 ED90      		ld r14,X+
 6869 019a FD90      		ld r15,X+
 6870 019c 0D91      		ld r16,X+
 6871 019e 1C91      		ld r17,X
 6872 01a0 5997      		sbiw r26,22+3
 6873 01a2 2E15      		cp r18,r14
 6874 01a4 3F05      		cpc r19,r15
 6875 01a6 4007      		cpc r20,r16
 6876 01a8 5107      		cpc r21,r17
 6877 01aa 01F4      		brne .L422
 6878 01ac CF01      		movw r24,r30
 6879 01ae 40E0      		ldi r20,lo8(0)
 6880 01b0 50E0      		ldi r21,hi8(0)
 6881 01b2 60E0      		ldi r22,hlo8(0)
 6882 01b4 70E0      		ldi r23,hhi8(0)
 6883 01b6 0E94 0000 		call move_window
 6884 01ba 8823      		tst r24
 6885 01bc 01F0      		breq .+2
 6886 01be 00C0      		rjmp .L446
 6887               	.L422:
 6888 01c0 AB81      		ldd r26,Y+3
 6889 01c2 BC81      		ldd r27,Y+4
 6890 01c4 0D91      		ld r16,X+
 6891 01c6 1C91      		ld r17,X
 6892 01c8 1197      		sbiw r26,1
 6893 01ca 5296      		adiw r26,18
 6894 01cc 2D91      		ld r18,X+
 6895 01ce 3D91      		ld r19,X+
 6896 01d0 4D91      		ld r20,X+
 6897 01d2 5C91      		ld r21,X
 6898 01d4 5597      		sbiw r26,18+3
 6899 01d6 2250      		subi r18,lo8(-(-2))
 6900 01d8 3040      		sbci r19,hi8(-(-2))
 6901 01da 4040      		sbci r20,hlo8(-(-2))
 6902 01dc 5040      		sbci r21,hhi8(-(-2))
 6903 01de F801      		movw r30,r16
 6904 01e0 828D      		ldd r24,Z+26
 6905 01e2 938D      		ldd r25,Z+27
 6906 01e4 A48D      		ldd r26,Z+28
 6907 01e6 B58D      		ldd r27,Z+29
 6908 01e8 0297      		sbiw r24,2
 6909 01ea A109      		sbc r26,__zero_reg__
 6910 01ec B109      		sbc r27,__zero_reg__
 6911 01ee 2817      		cp r18,r24
 6912 01f0 3907      		cpc r19,r25
 6913 01f2 4A07      		cpc r20,r26
 6914 01f4 5B07      		cpc r21,r27
 6915 01f6 00F4      		brsh .L423
 6916 01f8 8280      		ldd r8,Z+2
 6917 01fa 682D      		mov r22,r8
 6918 01fc 70E0      		ldi r23,lo8(0)
 6919 01fe 80E0      		ldi r24,lo8(0)
 6920 0200 90E0      		ldi r25,hi8(0)
 6921 0202 0E94 0000 		call __mulsi3
 6922 0206 9B01      		movw r18,r22
 6923 0208 AC01      		movw r20,r24
 6924 020a F801      		movw r30,r16
 6925 020c 82A5      		ldd r24,Z+42
 6926 020e 93A5      		ldd r25,Z+43
 6927 0210 A4A5      		ldd r26,Z+44
 6928 0212 B5A5      		ldd r27,Z+45
 6929 0214 280F      		add r18,r24
 6930 0216 391F      		adc r19,r25
 6931 0218 4A1F      		adc r20,r26
 6932 021a 5B1F      		adc r21,r27
 6933 021c 2115      		cp r18,__zero_reg__
 6934 021e 3105      		cpc r19,__zero_reg__
 6935 0220 4105      		cpc r20,__zero_reg__
 6936 0222 5105      		cpc r21,__zero_reg__
 6937 0224 01F4      		brne .L424
 6938               	.L423:
 6939 0226 AB81      		ldd r26,Y+3
 6940 0228 BC81      		ldd r27,Y+4
 6941 022a 1496      		adiw r26,4
 6942 022c 8C91      		ld r24,X
 6943 022e 1497      		sbiw r26,4
 6944 0230 8068      		ori r24,lo8(-128)
 6945 0232 1496      		adiw r26,4
 6946 0234 8C93      		st X,r24
 6947 0236 00C0      		rjmp .L443
 6948               	.L424:
 6949 0238 6901      		movw r12,r18
 6950 023a 7A01      		movw r14,r20
 6951 023c C90C      		add r12,r9
 6952 023e D11C      		adc r13,__zero_reg__
 6953 0240 E11C      		adc r14,__zero_reg__
 6954 0242 F11C      		adc r15,__zero_reg__
 6955 0244 5301      		movw r10,r6
 6956 0246 AB2C      		mov r10,r11
 6957 0248 BB24      		clr r11
 6958 024a A694      		lsr r10
 6959 024c A114      		cp r10,__zero_reg__
 6960 024e B104      		cpc r11,__zero_reg__
 6961 0250 01F4      		brne .+2
 6962 0252 00C0      		rjmp .L425
 6963 0254 292D      		mov r18,r9
 6964 0256 30E0      		ldi r19,lo8(0)
 6965 0258 C501      		movw r24,r10
 6966 025a 820F      		add r24,r18
 6967 025c 931F      		adc r25,r19
 6968 025e 682D      		mov r22,r8
 6969 0260 70E0      		ldi r23,lo8(0)
 6970 0262 6817      		cp r22,r24
 6971 0264 7907      		cpc r23,r25
 6972 0266 00F4      		brsh .L426
 6973 0268 5B01      		movw r10,r22
 6974 026a A21A      		sub r10,r18
 6975 026c B30A      		sbc r11,r19
 6976               	.L426:
 6977 026e F801      		movw r30,r16
 6978 0270 8181      		ldd r24,Z+1
 6979 0272 B101      		movw r22,r2
 6980 0274 A701      		movw r20,r14
 6981 0276 9601      		movw r18,r12
 6982 0278 0A2D      		mov r16,r10
 6983 027a 0E94 0000 		call disk_write
 6984 027e 8823      		tst r24
 6985 0280 01F0      		breq .+2
 6986 0282 00C0      		rjmp .L445
 6987               	.L427:
 6988 0284 AB81      		ldd r26,Y+3
 6989 0286 BC81      		ldd r27,Y+4
 6990 0288 ED91      		ld r30,X+
 6991 028a FC91      		ld r31,X
 6992 028c 26A5      		ldd r18,Z+46
 6993 028e 37A5      		ldd r19,Z+47
 6994 0290 40A9      		ldd r20,Z+48
 6995 0292 51A9      		ldd r21,Z+49
 6996 0294 2C19      		sub r18,r12
 6997 0296 3D09      		sbc r19,r13
 6998 0298 4E09      		sbc r20,r14
 6999 029a 5F09      		sbc r21,r15
 7000 029c C501      		movw r24,r10
 7001 029e A0E0      		ldi r26,lo8(0)
 7002 02a0 B0E0      		ldi r27,hi8(0)
 7003 02a2 2817      		cp r18,r24
 7004 02a4 3907      		cpc r19,r25
 7005 02a6 4A07      		cpc r20,r26
 7006 02a8 5B07      		cpc r21,r27
 7007 02aa 00F4      		brsh .L428
 7008 02ac DF01      		movw r26,r30
 7009 02ae D296      		adiw r26,50
 7010 02b0 69E0      		ldi r22,9
 7011 02b2 220F      	1:	lsl r18
 7012 02b4 331F      		rol r19
 7013 02b6 441F      		rol r20
 7014 02b8 551F      		rol r21
 7015 02ba 6A95      		dec r22
 7016 02bc 01F4      		brne 1b
 7017 02be F101      		movw r30,r2
 7018 02c0 E20F      		add r30,r18
 7019 02c2 F31F      		adc r31,r19
 7020 02c4 9F01      		movw r18,r30
 7021 02c6 2050      		subi r18,lo8(-(512))
 7022 02c8 3E4F      		sbci r19,hi8(-(512))
 7023 02ca 00C0      		rjmp .L429
 7024               	.L430:
 7025 02cc 8191      		ld r24,Z+
 7026 02ce 9191      		ld r25,Z+
 7027 02d0 8D93      		st X+,r24
 7028 02d2 9D93      		st X+,r25
 7029               	.L429:
 7030 02d4 E217      		cp r30,r18
 7031 02d6 F307      		cpc r31,r19
 7032 02d8 01F4      		brne .L430
 7033 02da AB81      		ldd r26,Y+3
 7034 02dc BC81      		ldd r27,Y+4
 7035 02de ED91      		ld r30,X+
 7036 02e0 FC91      		ld r31,X
 7037 02e2 1482      		std Z+4,__zero_reg__
 7038               	.L428:
 7039 02e4 B501      		movw r22,r10
 7040 02e6 762F      		mov r23,r22
 7041 02e8 6627      		clr r22
 7042 02ea 770F      		lsl r23
 7043 02ec 00C0      		rjmp .L431
 7044               	.L425:
 7045 02ee EB81      		ldd r30,Y+3
 7046 02f0 FC81      		ldd r31,Y+4
 7047 02f2 2681      		ldd r18,Z+6
 7048 02f4 3781      		ldd r19,Z+7
 7049 02f6 4085      		ldd r20,Z+8
 7050 02f8 5185      		ldd r21,Z+9
 7051 02fa 8285      		ldd r24,Z+10
 7052 02fc 9385      		ldd r25,Z+11
 7053 02fe A485      		ldd r26,Z+12
 7054 0300 B585      		ldd r27,Z+13
 7055 0302 2817      		cp r18,r24
 7056 0304 3907      		cpc r19,r25
 7057 0306 4A07      		cpc r20,r26
 7058 0308 5B07      		cpc r21,r27
 7059 030a 00F0      		brlo .L432
 7060 030c C801      		movw r24,r16
 7061 030e 40E0      		ldi r20,lo8(0)
 7062 0310 50E0      		ldi r21,hi8(0)
 7063 0312 60E0      		ldi r22,hlo8(0)
 7064 0314 70E0      		ldi r23,hhi8(0)
 7065 0316 0E94 0000 		call move_window
 7066 031a 8823      		tst r24
 7067 031c 01F0      		breq .L433
 7068               	.L445:
 7069 031e AB81      		ldd r26,Y+3
 7070 0320 BC81      		ldd r27,Y+4
 7071 0322 1496      		adiw r26,4
 7072 0324 8C91      		ld r24,X
 7073 0326 1497      		sbiw r26,4
 7074 0328 8068      		ori r24,lo8(-128)
 7075 032a 1496      		adiw r26,4
 7076 032c 8C93      		st X,r24
 7077 032e 00C0      		rjmp .L444
 7078               	.L433:
 7079 0330 AB81      		ldd r26,Y+3
 7080 0332 BC81      		ldd r27,Y+4
 7081 0334 ED91      		ld r30,X+
 7082 0336 FC91      		ld r31,X
 7083 0338 C6A6      		std Z+46,r12
 7084 033a D7A6      		std Z+47,r13
 7085 033c E0AA      		std Z+48,r14
 7086 033e F1AA      		std Z+49,r15
 7087               	.L432:
 7088 0340 EB81      		ldd r30,Y+3
 7089 0342 FC81      		ldd r31,Y+4
 7090 0344 C68A      		std Z+22,r12
 7091 0346 D78A      		std Z+23,r13
 7092 0348 E08E      		std Z+24,r14
 7093 034a F18E      		std Z+25,r15
 7094               	.L414:
 7095 034c AB81      		ldd r26,Y+3
 7096 034e BC81      		ldd r27,Y+4
 7097 0350 1696      		adiw r26,6
 7098 0352 CD90      		ld r12,X+
 7099 0354 DD90      		ld r13,X+
 7100 0356 ED90      		ld r14,X+
 7101 0358 FC90      		ld r15,X
 7102 035a 1997      		sbiw r26,6+3
 7103 035c 5696      		adiw r26,22
 7104 035e 4D91      		ld r20,X+
 7105 0360 5D91      		ld r21,X+
 7106 0362 6D91      		ld r22,X+
 7107 0364 7C91      		ld r23,X
 7108 0366 5997      		sbiw r26,22+3
 7109 0368 8D91      		ld r24,X+
 7110 036a 9C91      		ld r25,X
 7111 036c 0E94 0000 		call move_window
 7112 0370 8823      		tst r24
 7113 0372 01F0      		breq .L434
 7114               	.L446:
 7115 0374 EB81      		ldd r30,Y+3
 7116 0376 FC81      		ldd r31,Y+4
 7117 0378 8481      		ldd r24,Z+4
 7118 037a 8068      		ori r24,lo8(-128)
 7119 037c 8483      		std Z+4,r24
 7120               	.L444:
 7121 037e 5524      		clr r5
 7122 0380 5394      		inc r5
 7123 0382 00C0      		rjmp .L409
 7124               	.L434:
 7125 0384 C601      		movw r24,r12
 7126 0386 9170      		andi r25,hi8(511)
 7127 0388 20E0      		ldi r18,lo8(512)
 7128 038a 32E0      		ldi r19,hi8(512)
 7129 038c 281B      		sub r18,r24
 7130 038e 390B      		sbc r19,r25
 7131 0390 B301      		movw r22,r6
 7132 0392 2615      		cp r18,r6
 7133 0394 3705      		cpc r19,r7
 7134 0396 00F4      		brsh .L435
 7135 0398 B901      		movw r22,r18
 7136               	.L435:
 7137 039a AB81      		ldd r26,Y+3
 7138 039c BC81      		ldd r27,Y+4
 7139 039e 1696      		adiw r26,6
 7140 03a0 8D91      		ld r24,X+
 7141 03a2 9C91      		ld r25,X
 7142 03a4 1797      		sbiw r26,6+1
 7143 03a6 9170      		andi r25,hi8(511)
 7144 03a8 C296      		adiw r24,50
 7145 03aa 4D91      		ld r20,X+
 7146 03ac 5C91      		ld r21,X
 7147 03ae 480F      		add r20,r24
 7148 03b0 591F      		adc r21,r25
 7149 03b2 D101      		movw r26,r2
 7150 03b4 FA01      		movw r30,r20
 7151 03b6 9B01      		movw r18,r22
 7152 03b8 00C0      		rjmp .L436
 7153               	.L437:
 7154 03ba 8D91      		ld r24,X+
 7155 03bc 9D91      		ld r25,X+
 7156 03be 8193      		st Z+,r24
 7157 03c0 9193      		st Z+,r25
 7158 03c2 2250      		subi r18,lo8(-(-2))
 7159 03c4 3040      		sbci r19,hi8(-(-2))
 7160               	.L436:
 7161 03c6 2230      		cpi r18,2
 7162 03c8 3105      		cpc r19,__zero_reg__
 7163 03ca 00F4      		brsh .L437
 7164 03cc CB01      		movw r24,r22
 7165 03ce 8E7F      		andi r24,lo8(-2)
 7166 03d0 9B01      		movw r18,r22
 7167 03d2 281B      		sub r18,r24
 7168 03d4 390B      		sbc r19,r25
 7169 03d6 D101      		movw r26,r2
 7170 03d8 A80F      		add r26,r24
 7171 03da B91F      		adc r27,r25
 7172 03dc FA01      		movw r30,r20
 7173 03de E80F      		add r30,r24
 7174 03e0 F91F      		adc r31,r25
 7175 03e2 00C0      		rjmp .L438
 7176               	.L439:
 7177 03e4 8D91      		ld r24,X+
 7178 03e6 8193      		st Z+,r24
 7179               	.L438:
 7180 03e8 2150      		subi r18,lo8(-(-1))
 7181 03ea 3040      		sbci r19,hi8(-(-1))
 7182 03ec 8FEF      		ldi r24,hi8(-1)
 7183 03ee 2F3F      		cpi r18,lo8(-1)
 7184 03f0 3807      		cpc r19,r24
 7185 03f2 01F4      		brne .L439
 7186 03f4 AB81      		ldd r26,Y+3
 7187 03f6 BC81      		ldd r27,Y+4
 7188 03f8 ED91      		ld r30,X+
 7189 03fa FC91      		ld r31,X
 7190 03fc 4482      		std Z+4,r4
 7191               	.L431:
 7192 03fe 260E      		add r2,r22
 7193 0400 371E      		adc r3,r23
 7194 0402 CB01      		movw r24,r22
 7195 0404 A0E0      		ldi r26,lo8(0)
 7196 0406 B0E0      		ldi r27,hi8(0)
 7197 0408 EB81      		ldd r30,Y+3
 7198 040a FC81      		ldd r31,Y+4
 7199 040c 2681      		ldd r18,Z+6
 7200 040e 3781      		ldd r19,Z+7
 7201 0410 4085      		ldd r20,Z+8
 7202 0412 5185      		ldd r21,Z+9
 7203 0414 280F      		add r18,r24
 7204 0416 391F      		adc r19,r25
 7205 0418 4A1F      		adc r20,r26
 7206 041a 5B1F      		adc r21,r27
 7207 041c 2683      		std Z+6,r18
 7208 041e 3783      		std Z+7,r19
 7209 0420 4087      		std Z+8,r20
 7210 0422 5187      		std Z+9,r21
 7211 0424 E981      		ldd r30,Y+1
 7212 0426 FA81      		ldd r31,Y+2
 7213 0428 8081      		ld r24,Z
 7214 042a 9181      		ldd r25,Z+1
 7215 042c 860F      		add r24,r22
 7216 042e 971F      		adc r25,r23
 7217 0430 9183      		std Z+1,r25
 7218 0432 8083      		st Z,r24
 7219 0434 661A      		sub r6,r22
 7220 0436 770A      		sbc r7,r23
 7221               	.L413:
 7222 0438 6114      		cp r6,__zero_reg__
 7223 043a 7104      		cpc r7,__zero_reg__
 7224 043c 01F0      		breq .+2
 7225 043e 00C0      		rjmp .L440
 7226               	.L419:
 7227 0440 AB81      		ldd r26,Y+3
 7228 0442 BC81      		ldd r27,Y+4
 7229 0444 1696      		adiw r26,6
 7230 0446 2D91      		ld r18,X+
 7231 0448 3D91      		ld r19,X+
 7232 044a 4D91      		ld r20,X+
 7233 044c 5C91      		ld r21,X
 7234 044e 1997      		sbiw r26,6+3
 7235 0450 1A96      		adiw r26,10
 7236 0452 8D91      		ld r24,X+
 7237 0454 9D91      		ld r25,X+
 7238 0456 0D90      		ld __tmp_reg__,X+
 7239 0458 BC91      		ld r27,X
 7240 045a A02D      		mov r26,__tmp_reg__
 7241 045c 8217      		cp r24,r18
 7242 045e 9307      		cpc r25,r19
 7243 0460 A407      		cpc r26,r20
 7244 0462 B507      		cpc r27,r21
 7245 0464 00F4      		brsh .L441
 7246 0466 EB81      		ldd r30,Y+3
 7247 0468 FC81      		ldd r31,Y+4
 7248 046a 2287      		std Z+10,r18
 7249 046c 3387      		std Z+11,r19
 7250 046e 4487      		std Z+12,r20
 7251 0470 5587      		std Z+13,r21
 7252               	.L441:
 7253 0472 AB81      		ldd r26,Y+3
 7254 0474 BC81      		ldd r27,Y+4
 7255 0476 1496      		adiw r26,4
 7256 0478 8C91      		ld r24,X
 7257 047a 1497      		sbiw r26,4
 7258 047c 8062      		ori r24,lo8(32)
 7259 047e 1496      		adiw r26,4
 7260 0480 8C93      		st X,r24
 7261               	.L409:
 7262 0482 852D      		mov r24,r5
 7263               	/* epilogue start */
 7264 0484 0F90      		pop __tmp_reg__
 7265 0486 0F90      		pop __tmp_reg__
 7266 0488 0F90      		pop __tmp_reg__
 7267 048a 0F90      		pop __tmp_reg__
 7268 048c CF91      		pop r28
 7269 048e DF91      		pop r29
 7270 0490 1F91      		pop r17
 7271 0492 0F91      		pop r16
 7272 0494 FF90      		pop r15
 7273 0496 EF90      		pop r14
 7274 0498 DF90      		pop r13
 7275 049a CF90      		pop r12
 7276 049c BF90      		pop r11
 7277 049e AF90      		pop r10
 7278 04a0 9F90      		pop r9
 7279 04a2 8F90      		pop r8
 7280 04a4 7F90      		pop r7
 7281 04a6 6F90      		pop r6
 7282 04a8 5F90      		pop r5
 7283 04aa 4F90      		pop r4
 7284 04ac 3F90      		pop r3
 7285 04ae 2F90      		pop r2
 7286 04b0 0895      		ret
 7288               		.section	.text.f_mkdir,"ax",@progbits
 7289               	.global	f_mkdir
 7291               	f_mkdir:
 7292 0000 2F92      		push r2
 7293 0002 3F92      		push r3
 7294 0004 4F92      		push r4
 7295 0006 5F92      		push r5
 7296 0008 6F92      		push r6
 7297 000a 7F92      		push r7
 7298 000c 8F92      		push r8
 7299 000e 9F92      		push r9
 7300 0010 AF92      		push r10
 7301 0012 BF92      		push r11
 7302 0014 CF92      		push r12
 7303 0016 DF92      		push r13
 7304 0018 EF92      		push r14
 7305 001a FF92      		push r15
 7306 001c 0F93      		push r16
 7307 001e 1F93      		push r17
 7308 0020 DF93      		push r29
 7309 0022 CF93      		push r28
 7310 0024 CDB7      		in r28,__SP_L__
 7311 0026 DEB7      		in r29,__SP_H__
 7312 0028 AA97      		sbiw r28,42
 7313 002a 0FB6      		in __tmp_reg__,__SREG__
 7314 002c F894      		cli
 7315 002e DEBF      		out __SP_H__,r29
 7316 0030 0FBE      		out __SREG__,__tmp_reg__
 7317 0032 CDBF      		out __SP_L__,r28
 7318               	/* prologue: function */
 7319               	/* frame size = 42 */
 7320 0034 9CA3      		std Y+36,r25
 7321 0036 8BA3      		std Y+35,r24
 7322 0038 0E94 0000 		call get_fattime
 7323 003c 6DA3      		std Y+37,r22
 7324 003e 7EA3      		std Y+38,r23
 7325 0040 8FA3      		std Y+39,r24
 7326 0042 98A7      		std Y+40,r25
 7327 0044 4DE0      		ldi r20,lo8(13)
 7328 0046 E42E      		mov r14,r20
 7329 0048 F12C      		mov r15,__zero_reg__
 7330 004a EC0E      		add r14,r28
 7331 004c FD1E      		adc r15,r29
 7332 004e CE01      		movw r24,r28
 7333 0050 8396      		adiw r24,35
 7334 0052 B701      		movw r22,r14
 7335 0054 41E0      		ldi r20,lo8(1)
 7336 0056 0E94 0000 		call chk_mounted
 7337 005a 182F      		mov r17,r24
 7338 005c 8823      		tst r24
 7339 005e 01F0      		breq .+2
 7340 0060 00C0      		rjmp .L448
 7341 0062 CE01      		movw r24,r28
 7342 0064 0196      		adiw r24,1
 7343 0066 9AA3      		std Y+34,r25
 7344 0068 89A3      		std Y+33,r24
 7345 006a 6BA1      		ldd r22,Y+35
 7346 006c 7CA1      		ldd r23,Y+36
 7347 006e C701      		movw r24,r14
 7348 0070 0E94 0000 		call follow_path
 7349 0074 182F      		mov r17,r24
 7350 0076 8823      		tst r24
 7351 0078 01F0      		breq .L449
 7352 007a 8430      		cpi r24,lo8(4)
 7353 007c 01F0      		breq .+2
 7354 007e 00C0      		rjmp .L448
 7355 0080 E9A1      		ldd r30,Y+33
 7356 0082 FAA1      		ldd r31,Y+34
 7357 0084 8385      		ldd r24,Z+11
 7358 0086 85FF      		sbrs r24,5
 7359 0088 00C0      		rjmp .L450
 7360 008a 16E0      		ldi r17,lo8(6)
 7361 008c 00C0      		rjmp .L448
 7362               	.L449:
 7363 008e 18E0      		ldi r17,lo8(8)
 7364 0090 00C0      		rjmp .L448
 7365               	.L450:
 7366 0092 8D85      		ldd r24,Y+13
 7367 0094 9E85      		ldd r25,Y+14
 7368 0096 40E0      		ldi r20,lo8(0)
 7369 0098 50E0      		ldi r21,hi8(0)
 7370 009a 60E0      		ldi r22,hlo8(0)
 7371 009c 70E0      		ldi r23,hhi8(0)
 7372 009e 0E94 0000 		call create_chain
 7373 00a2 4B01      		movw r8,r22
 7374 00a4 5C01      		movw r10,r24
 7375 00a6 6115      		cp r22,__zero_reg__
 7376 00a8 7105      		cpc r23,__zero_reg__
 7377 00aa 8105      		cpc r24,__zero_reg__
 7378 00ac 9105      		cpc r25,__zero_reg__
 7379 00ae 01F4      		brne .L451
 7380 00b0 17E0      		ldi r17,lo8(7)
 7381 00b2 00C0      		rjmp .L452
 7382               	.L451:
 7383 00b4 6130      		cpi r22,lo8(1)
 7384 00b6 7105      		cpc r23,__zero_reg__
 7385 00b8 8105      		cpc r24,__zero_reg__
 7386 00ba 9105      		cpc r25,__zero_reg__
 7387 00bc 01F4      		brne .L453
 7388 00be 12E0      		ldi r17,lo8(2)
 7389 00c0 00C0      		rjmp .L452
 7390               	.L453:
 7391 00c2 6F3F      		cpi r22,lo8(-1)
 7392 00c4 3FEF      		ldi r19,hi8(-1)
 7393 00c6 7307      		cpc r23,r19
 7394 00c8 3FEF      		ldi r19,hlo8(-1)
 7395 00ca 8307      		cpc r24,r19
 7396 00cc 3FEF      		ldi r19,hhi8(-1)
 7397 00ce 9307      		cpc r25,r19
 7398 00d0 01F4      		brne .+2
 7399 00d2 00C0      		rjmp .L454
 7400 00d4 8D85      		ldd r24,Y+13
 7401 00d6 9E85      		ldd r25,Y+14
 7402 00d8 40E0      		ldi r20,lo8(0)
 7403 00da 50E0      		ldi r21,hi8(0)
 7404 00dc 60E0      		ldi r22,hlo8(0)
 7405 00de 70E0      		ldi r23,hhi8(0)
 7406 00e0 0E94 0000 		call move_window
 7407 00e4 182F      		mov r17,r24
 7408 00e6 8823      		tst r24
 7409 00e8 01F0      		breq .+2
 7410 00ea 00C0      		rjmp .L452
 7411 00ec CD84      		ldd r12,Y+13
 7412 00ee DE84      		ldd r13,Y+14
 7413 00f0 3EEF      		ldi r19,lo8(-2)
 7414 00f2 E32E      		mov r14,r19
 7415 00f4 3FEF      		ldi r19,hi8(-2)
 7416 00f6 F32E      		mov r15,r19
 7417 00f8 3FEF      		ldi r19,hlo8(-2)
 7418 00fa 032F      		mov r16,r19
 7419 00fc 3FEF      		ldi r19,hhi8(-2)
 7420 00fe 132F      		mov r17,r19
 7421 0100 E80C      		add r14,r8
 7422 0102 F91C      		adc r15,r9
 7423 0104 0A1D      		adc r16,r10
 7424 0106 1B1D      		adc r17,r11
 7425 0108 F601      		movw r30,r12
 7426 010a 828D      		ldd r24,Z+26
 7427 010c 938D      		ldd r25,Z+27
 7428 010e A48D      		ldd r26,Z+28
 7429 0110 B58D      		ldd r27,Z+29
 7430 0112 0297      		sbiw r24,2
 7431 0114 A109      		sbc r26,__zero_reg__
 7432 0116 B109      		sbc r27,__zero_reg__
 7433 0118 E816      		cp r14,r24
 7434 011a F906      		cpc r15,r25
 7435 011c 0A07      		cpc r16,r26
 7436 011e 1B07      		cpc r17,r27
 7437 0120 00F0      		brlo .L455
 7438 0122 4424      		clr r4
 7439 0124 5524      		clr r5
 7440 0126 3201      		movw r6,r4
 7441 0128 00C0      		rjmp .L456
 7442               	.L455:
 7443 012a D601      		movw r26,r12
 7444 012c 1296      		adiw r26,2
 7445 012e 2C91      		ld r18,X
 7446 0130 30E0      		ldi r19,lo8(0)
 7447 0132 40E0      		ldi r20,lo8(0)
 7448 0134 50E0      		ldi r21,hi8(0)
 7449 0136 C801      		movw r24,r16
 7450 0138 B701      		movw r22,r14
 7451 013a 0E94 0000 		call __mulsi3
 7452 013e 2B01      		movw r4,r22
 7453 0140 3C01      		movw r6,r24
 7454 0142 F601      		movw r30,r12
 7455 0144 82A5      		ldd r24,Z+42
 7456 0146 93A5      		ldd r25,Z+43
 7457 0148 A4A5      		ldd r26,Z+44
 7458 014a B5A5      		ldd r27,Z+45
 7459 014c 480E      		add r4,r24
 7460 014e 591E      		adc r5,r25
 7461 0150 6A1E      		adc r6,r26
 7462 0152 7B1E      		adc r7,r27
 7463               	.L456:
 7464 0154 22E3      		ldi r18,lo8(50)
 7465 0156 E22E      		mov r14,r18
 7466 0158 F12C      		mov r15,__zero_reg__
 7467 015a EC0C      		add r14,r12
 7468 015c FD1C      		adc r15,r13
 7469 015e F701      		movw r30,r14
 7470 0160 80E0      		ldi r24,lo8(512)
 7471 0162 92E0      		ldi r25,hi8(512)
 7472 0164 00C0      		rjmp .L457
 7473               	.L458:
 7474 0166 1192      		st Z+,__zero_reg__
 7475               	.L457:
 7476 0168 0197      		sbiw r24,1
 7477 016a 2FEF      		ldi r18,hi8(-1)
 7478 016c 8F3F      		cpi r24,lo8(-1)
 7479 016e 9207      		cpc r25,r18
 7480 0170 01F4      		brne .L458
 7481 0172 F701      		movw r30,r14
 7482 0174 8BE0      		ldi r24,lo8(11)
 7483 0176 90E0      		ldi r25,hi8(11)
 7484 0178 20E2      		ldi r18,lo8(32)
 7485 017a 00C0      		rjmp .L459
 7486               	.L460:
 7487 017c 2193      		st Z+,r18
 7488               	.L459:
 7489 017e 0197      		sbiw r24,1
 7490 0180 3FEF      		ldi r19,hi8(-1)
 7491 0182 8F3F      		cpi r24,lo8(-1)
 7492 0184 9307      		cpc r25,r19
 7493 0186 01F4      		brne .L460
 7494 0188 8EE2      		ldi r24,lo8(46)
 7495 018a D601      		movw r26,r12
 7496 018c D296      		adiw r26,50
 7497 018e 8C93      		st X,r24
 7498 0190 D297      		sbiw r26,50
 7499 0192 80E1      		ldi r24,lo8(16)
 7500 0194 DD96      		adiw r26,61
 7501 0196 8C93      		st X,r24
 7502 0198 8DA1      		ldd r24,Y+37
 7503 019a 9EA1      		ldd r25,Y+38
 7504 019c AFA1      		ldd r26,Y+39
 7505 019e B8A5      		ldd r27,Y+40
 7506 01a0 F701      		movw r30,r14
 7507 01a2 868B      		std Z+22,r24
 7508 01a4 978B      		std Z+23,r25
 7509 01a6 A08F      		std Z+24,r26
 7510 01a8 B18F      		std Z+25,r27
 7511 01aa 9AA6      		std Y+42,r9
 7512 01ac 89A6      		std Y+41,r8
 7513 01ae 938E      		std Z+27,r9
 7514 01b0 828E      		std Z+26,r8
 7515 01b2 C501      		movw r24,r10
 7516 01b4 AA27      		clr r26
 7517 01b6 BB27      		clr r27
 7518 01b8 1C01      		movw r2,r24
 7519 01ba 958B      		std Z+21,r25
 7520 01bc 848B      		std Z+20,r24
 7521 01be 20E2      		ldi r18,lo8(32)
 7522 01c0 30E0      		ldi r19,hi8(32)
 7523               	.L461:
 7524 01c2 8081      		ld r24,Z
 7525 01c4 9181      		ldd r25,Z+1
 7526 01c6 91A3      		std Z+33,r25
 7527 01c8 80A3      		std Z+32,r24
 7528 01ca 3296      		adiw r30,2
 7529 01cc 2250      		subi r18,lo8(-(-2))
 7530 01ce 3040      		sbci r19,hi8(-(-2))
 7531 01d0 01F4      		brne .L461
 7532 01d2 23E5      		ldi r18,lo8(83)
 7533 01d4 30E0      		ldi r19,hi8(83)
 7534 01d6 C20E      		add r12,r18
 7535 01d8 D31E      		adc r13,r19
 7536 01da 8EE2      		ldi r24,lo8(46)
 7537 01dc D601      		movw r26,r12
 7538 01de 8C93      		st X,r24
 7539 01e0 2B89      		ldd r18,Y+19
 7540 01e2 3C89      		ldd r19,Y+20
 7541 01e4 4D89      		ldd r20,Y+21
 7542 01e6 5E89      		ldd r21,Y+22
 7543 01e8 ED85      		ldd r30,Y+13
 7544 01ea FE85      		ldd r31,Y+14
 7545 01ec 8081      		ld r24,Z
 7546 01ee 8330      		cpi r24,lo8(3)
 7547 01f0 01F4      		brne .L462
 7548 01f2 86A1      		ldd r24,Z+38
 7549 01f4 97A1      		ldd r25,Z+39
 7550 01f6 A0A5      		ldd r26,Z+40
 7551 01f8 B1A5      		ldd r27,Z+41
 7552 01fa 2817      		cp r18,r24
 7553 01fc 3907      		cpc r19,r25
 7554 01fe 4A07      		cpc r20,r26
 7555 0200 5B07      		cpc r21,r27
 7556 0202 01F4      		brne .L462
 7557 0204 20E0      		ldi r18,lo8(0)
 7558 0206 30E0      		ldi r19,hi8(0)
 7559 0208 40E0      		ldi r20,hlo8(0)
 7560 020a 50E0      		ldi r21,hhi8(0)
 7561               	.L462:
 7562 020c D701      		movw r26,r14
 7563 020e DB96      		adiw r26,58+1
 7564 0210 3C93      		st X,r19
 7565 0212 2E93      		st -X,r18
 7566 0214 DA97      		sbiw r26,58
 7567 0216 9A01      		movw r18,r20
 7568 0218 4427      		clr r20
 7569 021a 5527      		clr r21
 7570 021c D596      		adiw r26,52+1
 7571 021e 3C93      		st X,r19
 7572 0220 2E93      		st -X,r18
 7573 0222 D497      		sbiw r26,52
 7574 0224 0281      		ldd r16,Z+2
 7575 0226 DD24      		clr r13
 7576 0228 D394      		inc r13
 7577 022a 00C0      		rjmp .L463
 7578               	.L466:
 7579 022c ED85      		ldd r30,Y+13
 7580 022e FE85      		ldd r31,Y+14
 7581 0230 46A6      		std Z+46,r4
 7582 0232 57A6      		std Z+47,r5
 7583 0234 60AA      		std Z+48,r6
 7584 0236 71AA      		std Z+49,r7
 7585 0238 D482      		std Z+4,r13
 7586 023a CF01      		movw r24,r30
 7587 023c 40E0      		ldi r20,lo8(0)
 7588 023e 50E0      		ldi r21,hi8(0)
 7589 0240 60E0      		ldi r22,hlo8(0)
 7590 0242 70E0      		ldi r23,hhi8(0)
 7591 0244 0E94 0000 		call move_window
 7592 0248 182F      		mov r17,r24
 7593 024a 8823      		tst r24
 7594 024c 01F4      		brne .L452
 7595 024e F701      		movw r30,r14
 7596 0250 80E0      		ldi r24,lo8(512)
 7597 0252 92E0      		ldi r25,hi8(512)
 7598 0254 00C0      		rjmp .L464
 7599               	.L465:
 7600 0256 1192      		st Z+,__zero_reg__
 7601               	.L464:
 7602 0258 0197      		sbiw r24,1
 7603 025a BFEF      		ldi r27,hi8(-1)
 7604 025c 8F3F      		cpi r24,lo8(-1)
 7605 025e 9B07      		cpc r25,r27
 7606 0260 01F4      		brne .L465
 7607 0262 0894      		sec
 7608 0264 411C      		adc r4,__zero_reg__
 7609 0266 511C      		adc r5,__zero_reg__
 7610 0268 611C      		adc r6,__zero_reg__
 7611 026a 711C      		adc r7,__zero_reg__
 7612 026c 0150      		subi r16,lo8(-(-1))
 7613               	.L463:
 7614 026e 0023      		tst r16
 7615 0270 01F4      		brne .L466
 7616 0272 00C0      		rjmp .L473
 7617               	.L452:
 7618 0274 8D85      		ldd r24,Y+13
 7619 0276 9E85      		ldd r25,Y+14
 7620 0278 B501      		movw r22,r10
 7621 027a A401      		movw r20,r8
 7622 027c 0E94 0000 		call remove_chain
 7623 0280 00C0      		rjmp .L448
 7624               	.L472:
 7625 0282 EF8D      		ldd r30,Y+31
 7626 0284 F8A1      		ldd r31,Y+32
 7627 0286 80E1      		ldi r24,lo8(16)
 7628 0288 8387      		std Z+11,r24
 7629 028a 8DA1      		ldd r24,Y+37
 7630 028c 9EA1      		ldd r25,Y+38
 7631 028e AFA1      		ldd r26,Y+39
 7632 0290 B8A5      		ldd r27,Y+40
 7633 0292 868B      		std Z+22,r24
 7634 0294 978B      		std Z+23,r25
 7635 0296 A08F      		std Z+24,r26
 7636 0298 B18F      		std Z+25,r27
 7637 029a A9A5      		ldd r26,Y+41
 7638 029c BAA5      		ldd r27,Y+42
 7639 029e B38F      		std Z+27,r27
 7640 02a0 A28F      		std Z+26,r26
 7641 02a2 358A      		std Z+21,r3
 7642 02a4 248A      		std Z+20,r2
 7643 02a6 ED85      		ldd r30,Y+13
 7644 02a8 FE85      		ldd r31,Y+14
 7645 02aa 81E0      		ldi r24,lo8(1)
 7646 02ac 8483      		std Z+4,r24
 7647 02ae CF01      		movw r24,r30
 7648 02b0 0E94 0000 		call sync
 7649 02b4 182F      		mov r17,r24
 7650               	.L448:
 7651 02b6 812F      		mov r24,r17
 7652               	/* epilogue start */
 7653 02b8 AA96      		adiw r28,42
 7654 02ba 0FB6      		in __tmp_reg__,__SREG__
 7655 02bc F894      		cli
 7656 02be DEBF      		out __SP_H__,r29
 7657 02c0 0FBE      		out __SREG__,__tmp_reg__
 7658 02c2 CDBF      		out __SP_L__,r28
 7659 02c4 CF91      		pop r28
 7660 02c6 DF91      		pop r29
 7661 02c8 1F91      		pop r17
 7662 02ca 0F91      		pop r16
 7663 02cc FF90      		pop r15
 7664 02ce EF90      		pop r14
 7665 02d0 DF90      		pop r13
 7666 02d2 CF90      		pop r12
 7667 02d4 BF90      		pop r11
 7668 02d6 AF90      		pop r10
 7669 02d8 9F90      		pop r9
 7670 02da 8F90      		pop r8
 7671 02dc 7F90      		pop r7
 7672 02de 6F90      		pop r6
 7673 02e0 5F90      		pop r5
 7674 02e2 4F90      		pop r4
 7675 02e4 3F90      		pop r3
 7676 02e6 2F90      		pop r2
 7677 02e8 0895      		ret
 7678               	.L454:
 7679 02ea 11E0      		ldi r17,lo8(1)
 7680 02ec 00C0      		rjmp .L452
 7681               	.L473:
 7682 02ee CE01      		movw r24,r28
 7683 02f0 0D96      		adiw r24,13
 7684 02f2 0E94 0000 		call dir_register
 7685 02f6 182F      		mov r17,r24
 7686 02f8 8823      		tst r24
 7687 02fa 01F0      		breq .L472
 7688 02fc 00C0      		rjmp .L452
 7690               		.section	.text.f_open,"ax",@progbits
 7691               	.global	f_open
 7693               	f_open:
 7694 0000 5F92      		push r5
 7695 0002 6F92      		push r6
 7696 0004 7F92      		push r7
 7697 0006 8F92      		push r8
 7698 0008 9F92      		push r9
 7699 000a AF92      		push r10
 7700 000c BF92      		push r11
 7701 000e CF92      		push r12
 7702 0010 DF92      		push r13
 7703 0012 EF92      		push r14
 7704 0014 FF92      		push r15
 7705 0016 0F93      		push r16
 7706 0018 1F93      		push r17
 7707 001a DF93      		push r29
 7708 001c CF93      		push r28
 7709 001e CDB7      		in r28,__SP_L__
 7710 0020 DEB7      		in r29,__SP_H__
 7711 0022 A497      		sbiw r28,36
 7712 0024 0FB6      		in __tmp_reg__,__SREG__
 7713 0026 F894      		cli
 7714 0028 DEBF      		out __SP_H__,r29
 7715 002a 0FBE      		out __SREG__,__tmp_reg__
 7716 002c CDBF      		out __SP_L__,r28
 7717               	/* prologue: function */
 7718               	/* frame size = 36 */
 7719 002e 3C01      		movw r6,r24
 7720 0030 7CA3      		std Y+36,r23
 7721 0032 6BA3      		std Y+35,r22
 7722 0034 DC01      		movw r26,r24
 7723 0036 1D92      		st X+,__zero_reg__
 7724 0038 1C92      		st X,__zero_reg__
 7725 003a 7FE1      		ldi r23,lo8(31)
 7726 003c 572E      		mov r5,r23
 7727 003e 5422      		and r5,r20
 7728 0040 8E01      		movw r16,r28
 7729 0042 035F      		subi r16,lo8(-(13))
 7730 0044 1F4F      		sbci r17,hi8(-(13))
 7731 0046 4E71      		andi r20,lo8(30)
 7732 0048 CE01      		movw r24,r28
 7733 004a 8396      		adiw r24,35
 7734 004c B801      		movw r22,r16
 7735 004e 0E94 0000 		call chk_mounted
 7736 0052 282F      		mov r18,r24
 7737 0054 CE01      		movw r24,r28
 7738 0056 0196      		adiw r24,1
 7739 0058 9AA3      		std Y+34,r25
 7740 005a 89A3      		std Y+33,r24
 7741 005c 2223      		tst r18
 7742 005e 01F4      		brne .L475
 7743 0060 6BA1      		ldd r22,Y+35
 7744 0062 7CA1      		ldd r23,Y+36
 7745 0064 C801      		movw r24,r16
 7746 0066 0E94 0000 		call follow_path
 7747 006a 282F      		mov r18,r24
 7748               	.L475:
 7749 006c CF8C      		ldd r12,Y+31
 7750 006e D8A0      		ldd r13,Y+32
 7751 0070 2223      		tst r18
 7752 0072 01F4      		brne .L476
 7753 0074 C114      		cp r12,__zero_reg__
 7754 0076 D104      		cpc r13,__zero_reg__
 7755 0078 01F4      		brne .L476
 7756 007a 26E0      		ldi r18,lo8(6)
 7757               	.L476:
 7758 007c 452D      		mov r20,r5
 7759 007e 50E0      		ldi r21,lo8(0)
 7760 0080 CA01      		movw r24,r20
 7761 0082 8C71      		andi r24,lo8(28)
 7762 0084 9070      		andi r25,hi8(28)
 7763 0086 892B      		or r24,r25
 7764 0088 01F4      		brne .+2
 7765 008a 00C0      		rjmp .L477
 7766 008c 2223      		tst r18
 7767 008e 01F0      		breq .L478
 7768 0090 2430      		cpi r18,lo8(4)
 7769 0092 01F4      		brne .L479
 7770 0094 CE01      		movw r24,r28
 7771 0096 0D96      		adiw r24,13
 7772 0098 0E94 0000 		call dir_register
 7773 009c 282F      		mov r18,r24
 7774               	.L479:
 7775 009e CF8C      		ldd r12,Y+31
 7776 00a0 D8A0      		ldd r13,Y+32
 7777 00a2 2223      		tst r18
 7778 00a4 01F0      		breq .+2
 7779 00a6 00C0      		rjmp .L480
 7780 00a8 B8E0      		ldi r27,lo8(8)
 7781 00aa 5B2A      		or r5,r27
 7782 00ac 00C0      		rjmp .L481
 7783               	.L478:
 7784 00ae 52FE      		sbrs r5,2
 7785 00b0 00C0      		rjmp .L482
 7786 00b2 28E0      		ldi r18,lo8(8)
 7787 00b4 00C0      		rjmp .L480
 7788               	.L482:
 7789 00b6 F601      		movw r30,r12
 7790 00b8 8385      		ldd r24,Z+11
 7791 00ba 8171      		andi r24,lo8(17)
 7792 00bc 01F0      		breq .+2
 7793 00be 00C0      		rjmp .L486
 7794               	.L481:
 7795 00c0 53FE      		sbrs r5,3
 7796 00c2 00C0      		rjmp .L484
 7797 00c4 0E94 0000 		call get_fattime
 7798 00c8 D601      		movw r26,r12
 7799 00ca 1E96      		adiw r26,14
 7800 00cc 6D93      		st X+,r22
 7801 00ce 7D93      		st X+,r23
 7802 00d0 8D93      		st X+,r24
 7803 00d2 9C93      		st X,r25
 7804 00d4 5197      		sbiw r26,14+3
 7805 00d6 1B96      		adiw r26,11
 7806 00d8 1C92      		st X,__zero_reg__
 7807 00da F601      		movw r30,r12
 7808 00dc 148E      		std Z+28,__zero_reg__
 7809 00de 158E      		std Z+29,__zero_reg__
 7810 00e0 168E      		std Z+30,__zero_reg__
 7811 00e2 178E      		std Z+31,__zero_reg__
 7812 00e4 8489      		ldd r24,Z+20
 7813 00e6 9589      		ldd r25,Z+21
 7814 00e8 A0E0      		ldi r26,lo8(0)
 7815 00ea B0E0      		ldi r27,hi8(0)
 7816 00ec 8C01      		movw r16,r24
 7817 00ee FF24      		clr r15
 7818 00f0 EE24      		clr r14
 7819 00f2 828D      		ldd r24,Z+26
 7820 00f4 938D      		ldd r25,Z+27
 7821 00f6 A0E0      		ldi r26,lo8(0)
 7822 00f8 B0E0      		ldi r27,hi8(0)
 7823 00fa E82A      		or r14,r24
 7824 00fc F92A      		or r15,r25
 7825 00fe 0A2B      		or r16,r26
 7826 0100 1B2B      		or r17,r27
 7827 0102 158A      		std Z+21,__zero_reg__
 7828 0104 148A      		std Z+20,__zero_reg__
 7829 0106 138E      		std Z+27,__zero_reg__
 7830 0108 128E      		std Z+26,__zero_reg__
 7831 010a ED85      		ldd r30,Y+13
 7832 010c FE85      		ldd r31,Y+14
 7833 010e 81E0      		ldi r24,lo8(1)
 7834 0110 8483      		std Z+4,r24
 7835 0112 E114      		cp r14,__zero_reg__
 7836 0114 F104      		cpc r15,__zero_reg__
 7837 0116 0105      		cpc r16,__zero_reg__
 7838 0118 1105      		cpc r17,__zero_reg__
 7839 011a 01F0      		breq .L484
 7840 011c 86A4      		ldd r8,Z+46
 7841 011e 97A4      		ldd r9,Z+47
 7842 0120 A0A8      		ldd r10,Z+48
 7843 0122 B1A8      		ldd r11,Z+49
 7844 0124 CF01      		movw r24,r30
 7845 0126 B801      		movw r22,r16
 7846 0128 A701      		movw r20,r14
 7847 012a 0E94 0000 		call remove_chain
 7848 012e 282F      		mov r18,r24
 7849 0130 8823      		tst r24
 7850 0132 01F0      		breq .+2
 7851 0134 00C0      		rjmp .L480
 7852 0136 ED85      		ldd r30,Y+13
 7853 0138 FE85      		ldd r31,Y+14
 7854 013a 0894      		sec
 7855 013c E108      		sbc r14,__zero_reg__
 7856 013e F108      		sbc r15,__zero_reg__
 7857 0140 0109      		sbc r16,__zero_reg__
 7858 0142 1109      		sbc r17,__zero_reg__
 7859 0144 E286      		std Z+10,r14
 7860 0146 F386      		std Z+11,r15
 7861 0148 0487      		std Z+12,r16
 7862 014a 1587      		std Z+13,r17
 7863 014c CF01      		movw r24,r30
 7864 014e B501      		movw r22,r10
 7865 0150 A401      		movw r20,r8
 7866 0152 0E94 0000 		call move_window
 7867 0156 282F      		mov r18,r24
 7868 0158 8823      		tst r24
 7869 015a 01F0      		breq .L484
 7870 015c 00C0      		rjmp .L480
 7871               	.L477:
 7872 015e 2223      		tst r18
 7873 0160 01F0      		breq .+2
 7874 0162 00C0      		rjmp .L480
 7875 0164 D601      		movw r26,r12
 7876 0166 1B96      		adiw r26,11
 7877 0168 8C91      		ld r24,X
 7878 016a 84FF      		sbrs r24,4
 7879 016c 00C0      		rjmp .L485
 7880 016e 24E0      		ldi r18,lo8(4)
 7881 0170 00C0      		rjmp .L480
 7882               	.L485:
 7883 0172 51FE      		sbrs r5,1
 7884 0174 00C0      		rjmp .L484
 7885 0176 80FD      		sbrc r24,0
 7886 0178 00C0      		rjmp .L486
 7887               	.L484:
 7888 017a 852D      		mov r24,r5
 7889 017c 8E71      		andi r24,lo8(30)
 7890 017e 01F0      		breq .L487
 7891 0180 B0E2      		ldi r27,lo8(32)
 7892 0182 5B2A      		or r5,r27
 7893               	.L487:
 7894 0184 6D85      		ldd r22,Y+13
 7895 0186 7E85      		ldd r23,Y+14
 7896 0188 FB01      		movw r30,r22
 7897 018a 26A5      		ldd r18,Z+46
 7898 018c 37A5      		ldd r19,Z+47
 7899 018e 40A9      		ldd r20,Z+48
 7900 0190 51A9      		ldd r21,Z+49
 7901 0192 D301      		movw r26,r6
 7902 0194 5A96      		adiw r26,26
 7903 0196 2D93      		st X+,r18
 7904 0198 3D93      		st X+,r19
 7905 019a 4D93      		st X+,r20
 7906 019c 5C93      		st X,r21
 7907 019e 5D97      		sbiw r26,26+3
 7908 01a0 5F96      		adiw r26,30+1
 7909 01a2 DC92      		st X,r13
 7910 01a4 CE92      		st -X,r12
 7911 01a6 5E97      		sbiw r26,30
 7912 01a8 1496      		adiw r26,4
 7913 01aa 5C92      		st X,r5
 7914 01ac F601      		movw r30,r12
 7915 01ae 8489      		ldd r24,Z+20
 7916 01b0 9589      		ldd r25,Z+21
 7917 01b2 A0E0      		ldi r26,lo8(0)
 7918 01b4 B0E0      		ldi r27,hi8(0)
 7919 01b6 DC01      		movw r26,r24
 7920 01b8 9927      		clr r25
 7921 01ba 8827      		clr r24
 7922 01bc 228D      		ldd r18,Z+26
 7923 01be 338D      		ldd r19,Z+27
 7924 01c0 40E0      		ldi r20,lo8(0)
 7925 01c2 50E0      		ldi r21,hi8(0)
 7926 01c4 822B      		or r24,r18
 7927 01c6 932B      		or r25,r19
 7928 01c8 A42B      		or r26,r20
 7929 01ca B52B      		or r27,r21
 7930 01cc F301      		movw r30,r6
 7931 01ce 8687      		std Z+14,r24
 7932 01d0 9787      		std Z+15,r25
 7933 01d2 A08B      		std Z+16,r26
 7934 01d4 B18B      		std Z+17,r27
 7935 01d6 F601      		movw r30,r12
 7936 01d8 848D      		ldd r24,Z+28
 7937 01da 958D      		ldd r25,Z+29
 7938 01dc A68D      		ldd r26,Z+30
 7939 01de B78D      		ldd r27,Z+31
 7940 01e0 F301      		movw r30,r6
 7941 01e2 8287      		std Z+10,r24
 7942 01e4 9387      		std Z+11,r25
 7943 01e6 A487      		std Z+12,r26
 7944 01e8 B587      		std Z+13,r27
 7945 01ea D301      		movw r26,r6
 7946 01ec 1696      		adiw r26,6
 7947 01ee 1D92      		st X+,__zero_reg__
 7948 01f0 1D92      		st X+,__zero_reg__
 7949 01f2 1D92      		st X+,__zero_reg__
 7950 01f4 1C92      		st X,__zero_reg__
 7951 01f6 1997      		sbiw r26,6+3
 7952 01f8 168A      		std Z+22,__zero_reg__
 7953 01fa 178A      		std Z+23,__zero_reg__
 7954 01fc 108E      		std Z+24,__zero_reg__
 7955 01fe 118E      		std Z+25,__zero_reg__
 7956 0200 7183      		std Z+1,r23
 7957 0202 6083      		st Z,r22
 7958 0204 DB01      		movw r26,r22
 7959 0206 1696      		adiw r26,6
 7960 0208 8D91      		ld r24,X+
 7961 020a 9C91      		ld r25,X
 7962 020c 1797      		sbiw r26,6+1
 7963 020e 9383      		std Z+3,r25
 7964 0210 8283      		std Z+2,r24
 7965 0212 20E0      		ldi r18,lo8(0)
 7966               	.L480:
 7967 0214 822F      		mov r24,r18
 7968               	/* epilogue start */
 7969 0216 A496      		adiw r28,36
 7970 0218 0FB6      		in __tmp_reg__,__SREG__
 7971 021a F894      		cli
 7972 021c DEBF      		out __SP_H__,r29
 7973 021e 0FBE      		out __SREG__,__tmp_reg__
 7974 0220 CDBF      		out __SP_L__,r28
 7975 0222 CF91      		pop r28
 7976 0224 DF91      		pop r29
 7977 0226 1F91      		pop r17
 7978 0228 0F91      		pop r16
 7979 022a FF90      		pop r15
 7980 022c EF90      		pop r14
 7981 022e DF90      		pop r13
 7982 0230 CF90      		pop r12
 7983 0232 BF90      		pop r11
 7984 0234 AF90      		pop r10
 7985 0236 9F90      		pop r9
 7986 0238 8F90      		pop r8
 7987 023a 7F90      		pop r7
 7988 023c 6F90      		pop r6
 7989 023e 5F90      		pop r5
 7990 0240 0895      		ret
 7991               	.L486:
 7992 0242 27E0      		ldi r18,lo8(7)
 7993 0244 00C0      		rjmp .L480
 7995               		.section	.text.f_getfree,"ax",@progbits
 7996               	.global	f_getfree
 7998               	f_getfree:
 7999 0000 3F92      		push r3
 8000 0002 4F92      		push r4
 8001 0004 5F92      		push r5
 8002 0006 6F92      		push r6
 8003 0008 7F92      		push r7
 8004 000a 8F92      		push r8
 8005 000c 9F92      		push r9
 8006 000e AF92      		push r10
 8007 0010 BF92      		push r11
 8008 0012 CF92      		push r12
 8009 0014 DF92      		push r13
 8010 0016 EF92      		push r14
 8011 0018 FF92      		push r15
 8012 001a 0F93      		push r16
 8013 001c 1F93      		push r17
 8014 001e DF93      		push r29
 8015 0020 CF93      		push r28
 8016 0022 00D0      		rcall .
 8017 0024 00D0      		rcall .
 8018 0026 CDB7      		in r28,__SP_L__
 8019 0028 DEB7      		in r29,__SP_H__
 8020               	/* prologue: function */
 8021               	/* frame size = 4 */
 8022 002a 9A83      		std Y+2,r25
 8023 002c 8983      		std Y+1,r24
 8024 002e 7C83      		std Y+4,r23
 8025 0030 6B83      		std Y+3,r22
 8026 0032 2A01      		movw r4,r20
 8027 0034 CE01      		movw r24,r28
 8028 0036 0196      		adiw r24,1
 8029 0038 BA01      		movw r22,r20
 8030 003a 40E0      		ldi r20,lo8(0)
 8031 003c 0E94 0000 		call chk_mounted
 8032 0040 682F      		mov r22,r24
 8033 0042 8823      		tst r24
 8034 0044 01F0      		breq .+2
 8035 0046 00C0      		rjmp .L490
 8036 0048 D201      		movw r26,r4
 8037 004a ED91      		ld r30,X+
 8038 004c FC91      		ld r31,X
 8039 004e 2685      		ldd r18,Z+14
 8040 0050 3785      		ldd r19,Z+15
 8041 0052 4089      		ldd r20,Z+16
 8042 0054 5189      		ldd r21,Z+17
 8043 0056 E28C      		ldd r14,Z+26
 8044 0058 F38C      		ldd r15,Z+27
 8045 005a 048D      		ldd r16,Z+28
 8046 005c 158D      		ldd r17,Z+29
 8047 005e D801      		movw r26,r16
 8048 0060 C701      		movw r24,r14
 8049 0062 0297      		sbiw r24,2
 8050 0064 A109      		sbc r26,__zero_reg__
 8051 0066 B109      		sbc r27,__zero_reg__
 8052 0068 8217      		cp r24,r18
 8053 006a 9307      		cpc r25,r19
 8054 006c A407      		cpc r26,r20
 8055 006e B507      		cpc r27,r21
 8056 0070 00F0      		brlo .L491
 8057 0072 EB81      		ldd r30,Y+3
 8058 0074 FC81      		ldd r31,Y+4
 8059 0076 2083      		st Z,r18
 8060 0078 3183      		std Z+1,r19
 8061 007a 4283      		std Z+2,r20
 8062 007c 5383      		std Z+3,r21
 8063 007e 00C0      		rjmp .L490
 8064               	.L491:
 8065 0080 3080      		ld r3,Z
 8066 0082 21E0      		ldi r18,lo8(1)
 8067 0084 3216      		cp r3,r18
 8068 0086 01F4      		brne .L492
 8069 0088 AA24      		clr r10
 8070 008a BB24      		clr r11
 8071 008c 6501      		movw r12,r10
 8072 008e E2E0      		ldi r30,lo8(2)
 8073 0090 EE2E      		mov r14,r30
 8074 0092 F12C      		mov r15,__zero_reg__
 8075 0094 012D      		mov r16,__zero_reg__
 8076 0096 112D      		mov r17,__zero_reg__
 8077               	.L497:
 8078 0098 D201      		movw r26,r4
 8079 009a 8D91      		ld r24,X+
 8080 009c 9C91      		ld r25,X
 8081 009e B801      		movw r22,r16
 8082 00a0 A701      		movw r20,r14
 8083 00a2 0E94 0000 		call get_fat
 8084 00a6 6F3F      		cpi r22,lo8(-1)
 8085 00a8 BFEF      		ldi r27,hi8(-1)
 8086 00aa 7B07      		cpc r23,r27
 8087 00ac BFEF      		ldi r27,hlo8(-1)
 8088 00ae 8B07      		cpc r24,r27
 8089 00b0 BFEF      		ldi r27,hhi8(-1)
 8090 00b2 9B07      		cpc r25,r27
 8091 00b4 01F4      		brne .L493
 8092 00b6 91E0      		ldi r25,lo8(1)
 8093 00b8 00C0      		rjmp .L494
 8094               	.L493:
 8095 00ba 6130      		cpi r22,lo8(1)
 8096 00bc 7105      		cpc r23,__zero_reg__
 8097 00be 8105      		cpc r24,__zero_reg__
 8098 00c0 9105      		cpc r25,__zero_reg__
 8099 00c2 01F4      		brne .L495
 8100 00c4 92E0      		ldi r25,lo8(2)
 8101 00c6 00C0      		rjmp .L494
 8102               	.L495:
 8103 00c8 6115      		cp r22,__zero_reg__
 8104 00ca 7105      		cpc r23,__zero_reg__
 8105 00cc 8105      		cpc r24,__zero_reg__
 8106 00ce 9105      		cpc r25,__zero_reg__
 8107 00d0 01F4      		brne .L496
 8108 00d2 0894      		sec
 8109 00d4 A11C      		adc r10,__zero_reg__
 8110 00d6 B11C      		adc r11,__zero_reg__
 8111 00d8 C11C      		adc r12,__zero_reg__
 8112 00da D11C      		adc r13,__zero_reg__
 8113               	.L496:
 8114 00dc 0894      		sec
 8115 00de E11C      		adc r14,__zero_reg__
 8116 00e0 F11C      		adc r15,__zero_reg__
 8117 00e2 011D      		adc r16,__zero_reg__
 8118 00e4 111D      		adc r17,__zero_reg__
 8119 00e6 D201      		movw r26,r4
 8120 00e8 ED91      		ld r30,X+
 8121 00ea FC91      		ld r31,X
 8122 00ec 828D      		ldd r24,Z+26
 8123 00ee 938D      		ldd r25,Z+27
 8124 00f0 A48D      		ldd r26,Z+28
 8125 00f2 B58D      		ldd r27,Z+29
 8126 00f4 E816      		cp r14,r24
 8127 00f6 F906      		cpc r15,r25
 8128 00f8 0A07      		cpc r16,r26
 8129 00fa 1B07      		cpc r17,r27
 8130 00fc 00F0      		brlo .L497
 8131 00fe 00C0      		rjmp .L498
 8132               	.L492:
 8133 0100 62A0      		ldd r6,Z+34
 8134 0102 73A0      		ldd r7,Z+35
 8135 0104 84A0      		ldd r8,Z+36
 8136 0106 95A0      		ldd r9,Z+37
 8137 0108 AA24      		clr r10
 8138 010a BB24      		clr r11
 8139 010c 6501      		movw r12,r10
 8140 010e 20E0      		ldi r18,lo8(0)
 8141 0110 30E0      		ldi r19,hi8(0)
 8142 0112 E0E0      		ldi r30,lo8(0)
 8143 0114 F0E0      		ldi r31,hi8(0)
 8144               	.L504:
 8145 0116 2115      		cp r18,__zero_reg__
 8146 0118 3105      		cpc r19,__zero_reg__
 8147 011a 01F4      		brne .L499
 8148 011c F201      		movw r30,r4
 8149 011e 8081      		ld r24,Z
 8150 0120 9181      		ldd r25,Z+1
 8151 0122 B401      		movw r22,r8
 8152 0124 A301      		movw r20,r6
 8153 0126 0E94 0000 		call move_window
 8154 012a 982F      		mov r25,r24
 8155 012c 8823      		tst r24
 8156 012e 01F4      		brne .L494
 8157 0130 0894      		sec
 8158 0132 611C      		adc r6,__zero_reg__
 8159 0134 711C      		adc r7,__zero_reg__
 8160 0136 811C      		adc r8,__zero_reg__
 8161 0138 911C      		adc r9,__zero_reg__
 8162 013a D201      		movw r26,r4
 8163 013c ED91      		ld r30,X+
 8164 013e FC91      		ld r31,X
 8165 0140 F296      		adiw r30,50
 8166 0142 20E0      		ldi r18,lo8(512)
 8167 0144 32E0      		ldi r19,hi8(512)
 8168               	.L499:
 8169 0146 B2E0      		ldi r27,lo8(2)
 8170 0148 3B16      		cp r3,r27
 8171 014a 01F4      		brne .L500
 8172 014c 8081      		ld r24,Z
 8173 014e 9181      		ldd r25,Z+1
 8174 0150 892B      		or r24,r25
 8175 0152 01F4      		brne .L501
 8176 0154 0894      		sec
 8177 0156 A11C      		adc r10,__zero_reg__
 8178 0158 B11C      		adc r11,__zero_reg__
 8179 015a C11C      		adc r12,__zero_reg__
 8180 015c D11C      		adc r13,__zero_reg__
 8181               	.L501:
 8182 015e 3296      		adiw r30,2
 8183 0160 2250      		subi r18,lo8(-(-2))
 8184 0162 3040      		sbci r19,hi8(-(-2))
 8185 0164 00C0      		rjmp .L502
 8186               	.L500:
 8187 0166 8081      		ld r24,Z
 8188 0168 9181      		ldd r25,Z+1
 8189 016a A281      		ldd r26,Z+2
 8190 016c B381      		ldd r27,Z+3
 8191 016e BF70      		andi r27,hhi8(268435455)
 8192 0170 0097      		sbiw r24,0
 8193 0172 A105      		cpc r26,__zero_reg__
 8194 0174 B105      		cpc r27,__zero_reg__
 8195 0176 01F4      		brne .L503
 8196 0178 0894      		sec
 8197 017a A11C      		adc r10,__zero_reg__
 8198 017c B11C      		adc r11,__zero_reg__
 8199 017e C11C      		adc r12,__zero_reg__
 8200 0180 D11C      		adc r13,__zero_reg__
 8201               	.L503:
 8202 0182 3496      		adiw r30,4
 8203 0184 2450      		subi r18,lo8(-(-4))
 8204 0186 3040      		sbci r19,hi8(-(-4))
 8205               	.L502:
 8206 0188 0894      		sec
 8207 018a E108      		sbc r14,__zero_reg__
 8208 018c F108      		sbc r15,__zero_reg__
 8209 018e 0109      		sbc r16,__zero_reg__
 8210 0190 1109      		sbc r17,__zero_reg__
 8211 0192 E114      		cp r14,__zero_reg__
 8212 0194 F104      		cpc r15,__zero_reg__
 8213 0196 0105      		cpc r16,__zero_reg__
 8214 0198 1105      		cpc r17,__zero_reg__
 8215 019a 01F0      		breq .+2
 8216 019c 00C0      		rjmp .L504
 8217               	.L498:
 8218 019e 90E0      		ldi r25,lo8(0)
 8219               	.L494:
 8220 01a0 D201      		movw r26,r4
 8221 01a2 ED91      		ld r30,X+
 8222 01a4 FC91      		ld r31,X
 8223 01a6 A686      		std Z+14,r10
 8224 01a8 B786      		std Z+15,r11
 8225 01aa C08A      		std Z+16,r12
 8226 01ac D18A      		std Z+17,r13
 8227 01ae B3E0      		ldi r27,lo8(3)
 8228 01b0 3B16      		cp r3,r27
 8229 01b2 01F4      		brne .L505
 8230 01b4 81E0      		ldi r24,lo8(1)
 8231 01b6 8583      		std Z+5,r24
 8232               	.L505:
 8233 01b8 EB81      		ldd r30,Y+3
 8234 01ba FC81      		ldd r31,Y+4
 8235 01bc A082      		st Z,r10
 8236 01be B182      		std Z+1,r11
 8237 01c0 C282      		std Z+2,r12
 8238 01c2 D382      		std Z+3,r13
 8239 01c4 692F      		mov r22,r25
 8240               	.L490:
 8241 01c6 862F      		mov r24,r22
 8242               	/* epilogue start */
 8243 01c8 0F90      		pop __tmp_reg__
 8244 01ca 0F90      		pop __tmp_reg__
 8245 01cc 0F90      		pop __tmp_reg__
 8246 01ce 0F90      		pop __tmp_reg__
 8247 01d0 CF91      		pop r28
 8248 01d2 DF91      		pop r29
 8249 01d4 1F91      		pop r17
 8250 01d6 0F91      		pop r16
 8251 01d8 FF90      		pop r15
 8252 01da EF90      		pop r14
 8253 01dc DF90      		pop r13
 8254 01de CF90      		pop r12
 8255 01e0 BF90      		pop r11
 8256 01e2 AF90      		pop r10
 8257 01e4 9F90      		pop r9
 8258 01e6 8F90      		pop r8
 8259 01e8 7F90      		pop r7
 8260 01ea 6F90      		pop r6
 8261 01ec 5F90      		pop r5
 8262 01ee 4F90      		pop r4
 8263 01f0 3F90      		pop r3
 8264 01f2 0895      		ret
 8266               		.section	.text.f_read,"ax",@progbits
 8267               	.global	f_read
 8269               	f_read:
 8270 0000 3F92      		push r3
 8271 0002 4F92      		push r4
 8272 0004 5F92      		push r5
 8273 0006 6F92      		push r6
 8274 0008 7F92      		push r7
 8275 000a 8F92      		push r8
 8276 000c 9F92      		push r9
 8277 000e AF92      		push r10
 8278 0010 BF92      		push r11
 8279 0012 CF92      		push r12
 8280 0014 DF92      		push r13
 8281 0016 EF92      		push r14
 8282 0018 FF92      		push r15
 8283 001a 0F93      		push r16
 8284 001c 1F93      		push r17
 8285 001e DF93      		push r29
 8286 0020 CF93      		push r28
 8287 0022 00D0      		rcall .
 8288 0024 00D0      		rcall .
 8289 0026 CDB7      		in r28,__SP_L__
 8290 0028 DEB7      		in r29,__SP_H__
 8291               	/* prologue: function */
 8292               	/* frame size = 4 */
 8293 002a 9C83      		std Y+4,r25
 8294 002c 8B83      		std Y+3,r24
 8295 002e 162F      		mov r17,r22
 8296 0030 072F      		mov r16,r23
 8297 0032 3A01      		movw r6,r20
 8298 0034 3A83      		std Y+2,r19
 8299 0036 2983      		std Y+1,r18
 8300 0038 D901      		movw r26,r18
 8301 003a 1D92      		st X+,__zero_reg__
 8302 003c 1C92      		st X,__zero_reg__
 8303 003e FC01      		movw r30,r24
 8304 0040 6281      		ldd r22,Z+2
 8305 0042 7381      		ldd r23,Z+3
 8306 0044 8081      		ld r24,Z
 8307 0046 9181      		ldd r25,Z+1
 8308 0048 0E94 0000 		call validate
 8309 004c 882E      		mov r8,r24
 8310 004e 8823      		tst r24
 8311 0050 01F0      		breq .+2
 8312 0052 00C0      		rjmp .L510
 8313 0054 AB81      		ldd r26,Y+3
 8314 0056 BC81      		ldd r27,Y+4
 8315 0058 1496      		adiw r26,4
 8316 005a 8C91      		ld r24,X
 8317 005c 87FD      		sbrc r24,7
 8318 005e 00C0      		rjmp .L538
 8319               	.L511:
 8320 0060 80FD      		sbrc r24,0
 8321 0062 00C0      		rjmp .L512
 8322 0064 87E0      		ldi r24,lo8(7)
 8323 0066 882E      		mov r8,r24
 8324 0068 00C0      		rjmp .L510
 8325               	.L512:
 8326 006a EB81      		ldd r30,Y+3
 8327 006c FC81      		ldd r31,Y+4
 8328 006e 2285      		ldd r18,Z+10
 8329 0070 3385      		ldd r19,Z+11
 8330 0072 4485      		ldd r20,Z+12
 8331 0074 5585      		ldd r21,Z+13
 8332 0076 8681      		ldd r24,Z+6
 8333 0078 9781      		ldd r25,Z+7
 8334 007a A085      		ldd r26,Z+8
 8335 007c B185      		ldd r27,Z+9
 8336 007e 281B      		sub r18,r24
 8337 0080 390B      		sbc r19,r25
 8338 0082 4A0B      		sbc r20,r26
 8339 0084 5B0B      		sbc r21,r27
 8340 0086 C301      		movw r24,r6
 8341 0088 A0E0      		ldi r26,lo8(0)
 8342 008a B0E0      		ldi r27,hi8(0)
 8343 008c 2817      		cp r18,r24
 8344 008e 3907      		cpc r19,r25
 8345 0090 4A07      		cpc r20,r26
 8346 0092 5B07      		cpc r21,r27
 8347 0094 00F4      		brsh .L513
 8348 0096 3901      		movw r6,r18
 8349               	.L513:
 8350 0098 812F      		mov r24,r17
 8351 009a 902F      		mov r25,r16
 8352 009c 9C01      		movw r18,r24
 8353 009e 2901      		movw r4,r18
 8354 00a0 00C0      		rjmp .L514
 8355               	.L536:
 8356 00a2 AB81      		ldd r26,Y+3
 8357 00a4 BC81      		ldd r27,Y+4
 8358 00a6 1696      		adiw r26,6
 8359 00a8 2D91      		ld r18,X+
 8360 00aa 3D91      		ld r19,X+
 8361 00ac 4D91      		ld r20,X+
 8362 00ae 5C91      		ld r21,X
 8363 00b0 1997      		sbiw r26,6+3
 8364 00b2 DA01      		movw r26,r20
 8365 00b4 C901      		movw r24,r18
 8366 00b6 9170      		andi r25,hi8(511)
 8367 00b8 A070      		andi r26,hlo8(511)
 8368 00ba B070      		andi r27,hhi8(511)
 8369 00bc 0097      		sbiw r24,0
 8370 00be A105      		cpc r26,__zero_reg__
 8371 00c0 B105      		cpc r27,__zero_reg__
 8372 00c2 01F0      		breq .+2
 8373 00c4 00C0      		rjmp .L515
 8374 00c6 AB81      		ldd r26,Y+3
 8375 00c8 BC81      		ldd r27,Y+4
 8376 00ca ED91      		ld r30,X+
 8377 00cc FC91      		ld r31,X
 8378 00ce DA01      		movw r26,r20
 8379 00d0 C901      		movw r24,r18
 8380 00d2 09E0      		ldi r16,9
 8381 00d4 B695      	1:	lsr r27
 8382 00d6 A795      		ror r26
 8383 00d8 9795      		ror r25
 8384 00da 8795      		ror r24
 8385 00dc 0A95      		dec r16
 8386 00de 01F4      		brne 1b
 8387 00e0 9280      		ldd r9,Z+2
 8388 00e2 9A94      		dec r9
 8389 00e4 9822      		and r9,r24
 8390 00e6 01F4      		brne .L516
 8391 00e8 2115      		cp r18,__zero_reg__
 8392 00ea 3105      		cpc r19,__zero_reg__
 8393 00ec 4105      		cpc r20,__zero_reg__
 8394 00ee 5105      		cpc r21,__zero_reg__
 8395 00f0 01F4      		brne .L517
 8396 00f2 EB81      		ldd r30,Y+3
 8397 00f4 FC81      		ldd r31,Y+4
 8398 00f6 6685      		ldd r22,Z+14
 8399 00f8 7785      		ldd r23,Z+15
 8400 00fa 8089      		ldd r24,Z+16
 8401 00fc 9189      		ldd r25,Z+17
 8402 00fe 00C0      		rjmp .L518
 8403               	.L517:
 8404 0100 AB81      		ldd r26,Y+3
 8405 0102 BC81      		ldd r27,Y+4
 8406 0104 5296      		adiw r26,18
 8407 0106 4D91      		ld r20,X+
 8408 0108 5D91      		ld r21,X+
 8409 010a 6D91      		ld r22,X+
 8410 010c 7C91      		ld r23,X
 8411 010e 5597      		sbiw r26,18+3
 8412 0110 CF01      		movw r24,r30
 8413 0112 0E94 0000 		call get_fat
 8414               	.L518:
 8415 0116 6230      		cpi r22,lo8(2)
 8416 0118 7105      		cpc r23,__zero_reg__
 8417 011a 8105      		cpc r24,__zero_reg__
 8418 011c 9105      		cpc r25,__zero_reg__
 8419 011e 00F4      		brsh .L519
 8420 0120 EB81      		ldd r30,Y+3
 8421 0122 FC81      		ldd r31,Y+4
 8422 0124 8481      		ldd r24,Z+4
 8423 0126 8068      		ori r24,lo8(-128)
 8424 0128 8483      		std Z+4,r24
 8425               	.L538:
 8426 012a 12E0      		ldi r17,lo8(2)
 8427 012c 812E      		mov r8,r17
 8428 012e 00C0      		rjmp .L510
 8429               	.L519:
 8430 0130 6F3F      		cpi r22,lo8(-1)
 8431 0132 FFEF      		ldi r31,hi8(-1)
 8432 0134 7F07      		cpc r23,r31
 8433 0136 FFEF      		ldi r31,hlo8(-1)
 8434 0138 8F07      		cpc r24,r31
 8435 013a FFEF      		ldi r31,hhi8(-1)
 8436 013c 9F07      		cpc r25,r31
 8437 013e 01F4      		brne .+2
 8438 0140 00C0      		rjmp .L540
 8439               	.L520:
 8440 0142 EB81      		ldd r30,Y+3
 8441 0144 FC81      		ldd r31,Y+4
 8442 0146 628B      		std Z+18,r22
 8443 0148 738B      		std Z+19,r23
 8444 014a 848B      		std Z+20,r24
 8445 014c 958B      		std Z+21,r25
 8446               	.L516:
 8447 014e AB81      		ldd r26,Y+3
 8448 0150 BC81      		ldd r27,Y+4
 8449 0152 0D91      		ld r16,X+
 8450 0154 1C91      		ld r17,X
 8451 0156 1197      		sbiw r26,1
 8452 0158 5296      		adiw r26,18
 8453 015a 2D91      		ld r18,X+
 8454 015c 3D91      		ld r19,X+
 8455 015e 4D91      		ld r20,X+
 8456 0160 5C91      		ld r21,X
 8457 0162 5597      		sbiw r26,18+3
 8458 0164 2250      		subi r18,lo8(-(-2))
 8459 0166 3040      		sbci r19,hi8(-(-2))
 8460 0168 4040      		sbci r20,hlo8(-(-2))
 8461 016a 5040      		sbci r21,hhi8(-(-2))
 8462 016c F801      		movw r30,r16
 8463 016e 828D      		ldd r24,Z+26
 8464 0170 938D      		ldd r25,Z+27
 8465 0172 A48D      		ldd r26,Z+28
 8466 0174 B58D      		ldd r27,Z+29
 8467 0176 0297      		sbiw r24,2
 8468 0178 A109      		sbc r26,__zero_reg__
 8469 017a B109      		sbc r27,__zero_reg__
 8470 017c 2817      		cp r18,r24
 8471 017e 3907      		cpc r19,r25
 8472 0180 4A07      		cpc r20,r26
 8473 0182 5B07      		cpc r21,r27
 8474 0184 00F4      		brsh .L521
 8475 0186 3280      		ldd r3,Z+2
 8476 0188 632D      		mov r22,r3
 8477 018a 70E0      		ldi r23,lo8(0)
 8478 018c 80E0      		ldi r24,lo8(0)
 8479 018e 90E0      		ldi r25,hi8(0)
 8480 0190 0E94 0000 		call __mulsi3
 8481 0194 9B01      		movw r18,r22
 8482 0196 AC01      		movw r20,r24
 8483 0198 F801      		movw r30,r16
 8484 019a 82A5      		ldd r24,Z+42
 8485 019c 93A5      		ldd r25,Z+43
 8486 019e A4A5      		ldd r26,Z+44
 8487 01a0 B5A5      		ldd r27,Z+45
 8488 01a2 280F      		add r18,r24
 8489 01a4 391F      		adc r19,r25
 8490 01a6 4A1F      		adc r20,r26
 8491 01a8 5B1F      		adc r21,r27
 8492 01aa 2115      		cp r18,__zero_reg__
 8493 01ac 3105      		cpc r19,__zero_reg__
 8494 01ae 4105      		cpc r20,__zero_reg__
 8495 01b0 5105      		cpc r21,__zero_reg__
 8496 01b2 01F4      		brne .L522
 8497               	.L521:
 8498 01b4 AB81      		ldd r26,Y+3
 8499 01b6 BC81      		ldd r27,Y+4
 8500 01b8 1496      		adiw r26,4
 8501 01ba 8C91      		ld r24,X
 8502 01bc 1497      		sbiw r26,4
 8503 01be 8068      		ori r24,lo8(-128)
 8504 01c0 1496      		adiw r26,4
 8505 01c2 8C93      		st X,r24
 8506 01c4 00C0      		rjmp .L538
 8507               	.L522:
 8508 01c6 6901      		movw r12,r18
 8509 01c8 7A01      		movw r14,r20
 8510 01ca C90C      		add r12,r9
 8511 01cc D11C      		adc r13,__zero_reg__
 8512 01ce E11C      		adc r14,__zero_reg__
 8513 01d0 F11C      		adc r15,__zero_reg__
 8514 01d2 5301      		movw r10,r6
 8515 01d4 AB2C      		mov r10,r11
 8516 01d6 BB24      		clr r11
 8517 01d8 A694      		lsr r10
 8518 01da A114      		cp r10,__zero_reg__
 8519 01dc B104      		cpc r11,__zero_reg__
 8520 01de 01F4      		brne .+2
 8521 01e0 00C0      		rjmp .L523
 8522 01e2 292D      		mov r18,r9
 8523 01e4 30E0      		ldi r19,lo8(0)
 8524 01e6 C501      		movw r24,r10
 8525 01e8 820F      		add r24,r18
 8526 01ea 931F      		adc r25,r19
 8527 01ec 632D      		mov r22,r3
 8528 01ee 70E0      		ldi r23,lo8(0)
 8529 01f0 6817      		cp r22,r24
 8530 01f2 7907      		cpc r23,r25
 8531 01f4 00F4      		brsh .L524
 8532 01f6 5B01      		movw r10,r22
 8533 01f8 A21A      		sub r10,r18
 8534 01fa B30A      		sbc r11,r19
 8535               	.L524:
 8536 01fc F801      		movw r30,r16
 8537 01fe 8181      		ldd r24,Z+1
 8538 0200 B201      		movw r22,r4
 8539 0202 A701      		movw r20,r14
 8540 0204 9601      		movw r18,r12
 8541 0206 0A2D      		mov r16,r10
 8542 0208 0E94 0000 		call disk_read
 8543 020c 8823      		tst r24
 8544 020e 01F0      		breq .L525
 8545               	.L540:
 8546 0210 AB81      		ldd r26,Y+3
 8547 0212 BC81      		ldd r27,Y+4
 8548 0214 1496      		adiw r26,4
 8549 0216 8C91      		ld r24,X
 8550 0218 1497      		sbiw r26,4
 8551 021a 8068      		ori r24,lo8(-128)
 8552 021c 1496      		adiw r26,4
 8553 021e 8C93      		st X,r24
 8554 0220 00C0      		rjmp .L539
 8555               	.L525:
 8556 0222 AB81      		ldd r26,Y+3
 8557 0224 BC81      		ldd r27,Y+4
 8558 0226 ED91      		ld r30,X+
 8559 0228 FC91      		ld r31,X
 8560 022a 8481      		ldd r24,Z+4
 8561 022c 8823      		tst r24
 8562 022e 01F0      		breq .L526
 8563 0230 26A5      		ldd r18,Z+46
 8564 0232 37A5      		ldd r19,Z+47
 8565 0234 40A9      		ldd r20,Z+48
 8566 0236 51A9      		ldd r21,Z+49
 8567 0238 2C19      		sub r18,r12
 8568 023a 3D09      		sbc r19,r13
 8569 023c 4E09      		sbc r20,r14
 8570 023e 5F09      		sbc r21,r15
 8571 0240 C501      		movw r24,r10
 8572 0242 A0E0      		ldi r26,lo8(0)
 8573 0244 B0E0      		ldi r27,hi8(0)
 8574 0246 2817      		cp r18,r24
 8575 0248 3907      		cpc r19,r25
 8576 024a 4A07      		cpc r20,r26
 8577 024c 5B07      		cpc r21,r27
 8578 024e 00F4      		brsh .L526
 8579 0250 A9E0      		ldi r26,9
 8580 0252 220F      	1:	lsl r18
 8581 0254 331F      		rol r19
 8582 0256 441F      		rol r20
 8583 0258 551F      		rol r21
 8584 025a AA95      		dec r26
 8585 025c 01F4      		brne 1b
 8586 025e C201      		movw r24,r4
 8587 0260 820F      		add r24,r18
 8588 0262 931F      		adc r25,r19
 8589 0264 DF01      		movw r26,r30
 8590 0266 D296      		adiw r26,50
 8591 0268 FC01      		movw r30,r24
 8592 026a 9C01      		movw r18,r24
 8593 026c 2050      		subi r18,lo8(-(512))
 8594 026e 3E4F      		sbci r19,hi8(-(512))
 8595 0270 00C0      		rjmp .L527
 8596               	.L528:
 8597 0272 8D91      		ld r24,X+
 8598 0274 9D91      		ld r25,X+
 8599 0276 8193      		st Z+,r24
 8600 0278 9193      		st Z+,r25
 8601               	.L527:
 8602 027a E217      		cp r30,r18
 8603 027c F307      		cpc r31,r19
 8604 027e 01F4      		brne .L528
 8605               	.L526:
 8606 0280 B501      		movw r22,r10
 8607 0282 762F      		mov r23,r22
 8608 0284 6627      		clr r22
 8609 0286 770F      		lsl r23
 8610 0288 00C0      		rjmp .L529
 8611               	.L523:
 8612 028a EB81      		ldd r30,Y+3
 8613 028c FC81      		ldd r31,Y+4
 8614 028e C68A      		std Z+22,r12
 8615 0290 D78A      		std Z+23,r13
 8616 0292 E08E      		std Z+24,r14
 8617 0294 F18E      		std Z+25,r15
 8618               	.L515:
 8619 0296 AB81      		ldd r26,Y+3
 8620 0298 BC81      		ldd r27,Y+4
 8621 029a 1696      		adiw r26,6
 8622 029c CD90      		ld r12,X+
 8623 029e DD90      		ld r13,X+
 8624 02a0 ED90      		ld r14,X+
 8625 02a2 FC90      		ld r15,X
 8626 02a4 1997      		sbiw r26,6+3
 8627 02a6 5696      		adiw r26,22
 8628 02a8 4D91      		ld r20,X+
 8629 02aa 5D91      		ld r21,X+
 8630 02ac 6D91      		ld r22,X+
 8631 02ae 7C91      		ld r23,X
 8632 02b0 5997      		sbiw r26,22+3
 8633 02b2 8D91      		ld r24,X+
 8634 02b4 9C91      		ld r25,X
 8635 02b6 0E94 0000 		call move_window
 8636 02ba 8823      		tst r24
 8637 02bc 01F0      		breq .L530
 8638 02be EB81      		ldd r30,Y+3
 8639 02c0 FC81      		ldd r31,Y+4
 8640 02c2 8481      		ldd r24,Z+4
 8641 02c4 8068      		ori r24,lo8(-128)
 8642 02c6 8483      		std Z+4,r24
 8643               	.L539:
 8644 02c8 8824      		clr r8
 8645 02ca 8394      		inc r8
 8646 02cc 00C0      		rjmp .L510
 8647               	.L530:
 8648 02ce C601      		movw r24,r12
 8649 02d0 9170      		andi r25,hi8(511)
 8650 02d2 20E0      		ldi r18,lo8(512)
 8651 02d4 32E0      		ldi r19,hi8(512)
 8652 02d6 281B      		sub r18,r24
 8653 02d8 390B      		sbc r19,r25
 8654 02da B301      		movw r22,r6
 8655 02dc 2615      		cp r18,r6
 8656 02de 3705      		cpc r19,r7
 8657 02e0 00F4      		brsh .L531
 8658 02e2 B901      		movw r22,r18
 8659               	.L531:
 8660 02e4 AB81      		ldd r26,Y+3
 8661 02e6 BC81      		ldd r27,Y+4
 8662 02e8 1696      		adiw r26,6
 8663 02ea 8D91      		ld r24,X+
 8664 02ec 9C91      		ld r25,X
 8665 02ee 1797      		sbiw r26,6+1
 8666 02f0 9170      		andi r25,hi8(511)
 8667 02f2 C296      		adiw r24,50
 8668 02f4 4D91      		ld r20,X+
 8669 02f6 5C91      		ld r21,X
 8670 02f8 480F      		add r20,r24
 8671 02fa 591F      		adc r21,r25
 8672 02fc DA01      		movw r26,r20
 8673 02fe F201      		movw r30,r4
 8674 0300 9B01      		movw r18,r22
 8675 0302 00C0      		rjmp .L532
 8676               	.L533:
 8677 0304 8D91      		ld r24,X+
 8678 0306 9D91      		ld r25,X+
 8679 0308 8193      		st Z+,r24
 8680 030a 9193      		st Z+,r25
 8681 030c 2250      		subi r18,lo8(-(-2))
 8682 030e 3040      		sbci r19,hi8(-(-2))
 8683               	.L532:
 8684 0310 2230      		cpi r18,2
 8685 0312 3105      		cpc r19,__zero_reg__
 8686 0314 00F4      		brsh .L533
 8687 0316 CB01      		movw r24,r22
 8688 0318 8E7F      		andi r24,lo8(-2)
 8689 031a 9B01      		movw r18,r22
 8690 031c 281B      		sub r18,r24
 8691 031e 390B      		sbc r19,r25
 8692 0320 DA01      		movw r26,r20
 8693 0322 A80F      		add r26,r24
 8694 0324 B91F      		adc r27,r25
 8695 0326 F201      		movw r30,r4
 8696 0328 E80F      		add r30,r24
 8697 032a F91F      		adc r31,r25
 8698 032c 00C0      		rjmp .L534
 8699               	.L535:
 8700 032e 8D91      		ld r24,X+
 8701 0330 8193      		st Z+,r24
 8702               	.L534:
 8703 0332 2150      		subi r18,lo8(-(-1))
 8704 0334 3040      		sbci r19,hi8(-(-1))
 8705 0336 8FEF      		ldi r24,hi8(-1)
 8706 0338 2F3F      		cpi r18,lo8(-1)
 8707 033a 3807      		cpc r19,r24
 8708 033c 01F4      		brne .L535
 8709               	.L529:
 8710 033e 460E      		add r4,r22
 8711 0340 571E      		adc r5,r23
 8712 0342 CB01      		movw r24,r22
 8713 0344 A0E0      		ldi r26,lo8(0)
 8714 0346 B0E0      		ldi r27,hi8(0)
 8715 0348 EB81      		ldd r30,Y+3
 8716 034a FC81      		ldd r31,Y+4
 8717 034c 2681      		ldd r18,Z+6
 8718 034e 3781      		ldd r19,Z+7
 8719 0350 4085      		ldd r20,Z+8
 8720 0352 5185      		ldd r21,Z+9
 8721 0354 280F      		add r18,r24
 8722 0356 391F      		adc r19,r25
 8723 0358 4A1F      		adc r20,r26
 8724 035a 5B1F      		adc r21,r27
 8725 035c 2683      		std Z+6,r18
 8726 035e 3783      		std Z+7,r19
 8727 0360 4087      		std Z+8,r20
 8728 0362 5187      		std Z+9,r21
 8729 0364 E981      		ldd r30,Y+1
 8730 0366 FA81      		ldd r31,Y+2
 8731 0368 8081      		ld r24,Z
 8732 036a 9181      		ldd r25,Z+1
 8733 036c 860F      		add r24,r22
 8734 036e 971F      		adc r25,r23
 8735 0370 9183      		std Z+1,r25
 8736 0372 8083      		st Z,r24
 8737 0374 661A      		sub r6,r22
 8738 0376 770A      		sbc r7,r23
 8739               	.L514:
 8740 0378 6114      		cp r6,__zero_reg__
 8741 037a 7104      		cpc r7,__zero_reg__
 8742 037c 01F0      		breq .+2
 8743 037e 00C0      		rjmp .L536
 8744               	.L510:
 8745 0380 882D      		mov r24,r8
 8746               	/* epilogue start */
 8747 0382 0F90      		pop __tmp_reg__
 8748 0384 0F90      		pop __tmp_reg__
 8749 0386 0F90      		pop __tmp_reg__
 8750 0388 0F90      		pop __tmp_reg__
 8751 038a CF91      		pop r28
 8752 038c DF91      		pop r29
 8753 038e 1F91      		pop r17
 8754 0390 0F91      		pop r16
 8755 0392 FF90      		pop r15
 8756 0394 EF90      		pop r14
 8757 0396 DF90      		pop r13
 8758 0398 CF90      		pop r12
 8759 039a BF90      		pop r11
 8760 039c AF90      		pop r10
 8761 039e 9F90      		pop r9
 8762 03a0 8F90      		pop r8
 8763 03a2 7F90      		pop r7
 8764 03a4 6F90      		pop r6
 8765 03a6 5F90      		pop r5
 8766 03a8 4F90      		pop r4
 8767 03aa 3F90      		pop r3
 8768 03ac 0895      		ret
 8770               		.data
 8773               	cst.2649:
 8774 0036 0080      		.word	-32768
 8775 0038 0040      		.word	16384
 8776 003a 0020      		.word	8192
 8777 003c 0010      		.word	4096
 8778 003e 0008      		.word	2048
 8779 0040 0040      		.word	16384
 8780 0042 0020      		.word	8192
 8781 0044 0010      		.word	4096
 8782 0046 0008      		.word	2048
 8783 0048 0004      		.word	1024
 8784 004a 0002      		.word	512
 8787               	vst.2648:
 8788 004c 0004      		.word	1024
 8789 004e 0002      		.word	512
 8790 0050 0001      		.word	256
 8791 0052 8000      		.word	128
 8792 0054 4000      		.word	64
 8793 0056 2000      		.word	32
 8794 0058 1000      		.word	16
 8795 005a 0800      		.word	8
 8796 005c 0400      		.word	4
 8797 005e 0200      		.word	2
 8798 0060 0000      		.word	0
 8799               		.lcomm Fsid,2
 8800               		.lcomm FatFs,4
 8801               		.lcomm Drive,1
 8802               	.global __do_copy_data
 8803               	.global __do_clear_bss
DEFINED SYMBOLS
                            *ABS*:00000000 ff.c
C:\Users\David\AppData\Local\Temp/ccJL8vgt.s:2      *ABS*:0000003f __SREG__
C:\Users\David\AppData\Local\Temp/ccJL8vgt.s:3      *ABS*:0000003e __SP_H__
C:\Users\David\AppData\Local\Temp/ccJL8vgt.s:4      *ABS*:0000003d __SP_L__
C:\Users\David\AppData\Local\Temp/ccJL8vgt.s:5      *ABS*:00000034 __CCP__
C:\Users\David\AppData\Local\Temp/ccJL8vgt.s:6      *ABS*:00000000 __tmp_reg__
C:\Users\David\AppData\Local\Temp/ccJL8vgt.s:7      *ABS*:00000001 __zero_reg__
C:\Users\David\AppData\Local\Temp/ccJL8vgt.s:11     .text.clust2sect:00000000 clust2sect
C:\Users\David\AppData\Local\Temp/ccJL8vgt.s:80     .text.get_fileinfo:00000000 get_fileinfo
C:\Users\David\AppData\Local\Temp/ccJL8vgt.s:184    .text.f_mount:00000000 f_mount
C:\Users\David\AppData\Local\Temp/ccJL8vgt.s:8799   .bss:00000002 FatFs
C:\Users\David\AppData\Local\Temp/ccJL8vgt.s:229    .text.f_chdrive:00000000 f_chdrive
C:\Users\David\AppData\Local\Temp/ccJL8vgt.s:8800   .bss:00000006 Drive
C:\Users\David\AppData\Local\Temp/ccJL8vgt.s:249    .text.f_mkfs:00000000 f_mkfs
C:\Users\David\AppData\Local\Temp/ccJL8vgt.s:8787   .data:0000004c vst.2648
C:\Users\David\AppData\Local\Temp/ccJL8vgt.s:8773   .data:00000036 cst.2649
C:\Users\David\AppData\Local\Temp/ccJL8vgt.s:1551   .text.validate:00000000 validate
C:\Users\David\AppData\Local\Temp/ccJL8vgt.s:1580   .text.chk_mounted:00000000 chk_mounted
                             .bss:00000000 Fsid
C:\Users\David\AppData\Local\Temp/ccJL8vgt.s:2407   .text.move_window:00000000 move_window
C:\Users\David\AppData\Local\Temp/ccJL8vgt.s:2538   .text.sync:00000000 sync
C:\Users\David\AppData\Local\Temp/ccJL8vgt.s:2658   .text.f_sync:00000000 f_sync
C:\Users\David\AppData\Local\Temp/ccJL8vgt.s:2743   .text.f_close:00000000 f_close
C:\Users\David\AppData\Local\Temp/ccJL8vgt.s:2763   .text.put_fat:00000000 put_fat
C:\Users\David\AppData\Local\Temp/ccJL8vgt.s:3024   .text.get_fat:00000000 get_fat
C:\Users\David\AppData\Local\Temp/ccJL8vgt.s:3245   .text.dir_sdi:00000000 dir_sdi
C:\Users\David\AppData\Local\Temp/ccJL8vgt.s:3512   .text.create_chain:00000000 create_chain
C:\Users\David\AppData\Local\Temp/ccJL8vgt.s:3749   .text.remove_chain:00000000 remove_chain
C:\Users\David\AppData\Local\Temp/ccJL8vgt.s:3886   .text.f_truncate:00000000 f_truncate
C:\Users\David\AppData\Local\Temp/ccJL8vgt.s:4038   .text.f_lseek:00000000 f_lseek
C:\Users\David\AppData\Local\Temp/ccJL8vgt.s:4554   .text.dir_remove:00000000 dir_remove
C:\Users\David\AppData\Local\Temp/ccJL8vgt.s:4593   .text.dir_next:00000000 dir_next
C:\Users\David\AppData\Local\Temp/ccJL8vgt.s:4994   .text.follow_path:00000000 follow_path
C:\Users\David\AppData\Local\Temp/ccJL8vgt.s:5376   .text.f_utime:00000000 f_utime
C:\Users\David\AppData\Local\Temp/ccJL8vgt.s:5466   .text.f_chmod:00000000 f_chmod
C:\Users\David\AppData\Local\Temp/ccJL8vgt.s:5553   .text.f_stat:00000000 f_stat
C:\Users\David\AppData\Local\Temp/ccJL8vgt.s:5629   .text.f_opendir:00000000 f_opendir
C:\Users\David\AppData\Local\Temp/ccJL8vgt.s:5735   .text.f_chdir:00000000 f_chdir
C:\Users\David\AppData\Local\Temp/ccJL8vgt.s:5842   .text.dir_register:00000000 dir_register
C:\Users\David\AppData\Local\Temp/ccJL8vgt.s:5951   .text.f_rename:00000000 f_rename
C:\Users\David\AppData\Local\Temp/ccJL8vgt.s:6302   .text.dir_read:00000000 dir_read
C:\Users\David\AppData\Local\Temp/ccJL8vgt.s:6365   .text.f_readdir:00000000 f_readdir
C:\Users\David\AppData\Local\Temp/ccJL8vgt.s:6454   .text.f_unlink:00000000 f_unlink
C:\Users\David\AppData\Local\Temp/ccJL8vgt.s:6653   .text.f_write:00000000 f_write
C:\Users\David\AppData\Local\Temp/ccJL8vgt.s:7291   .text.f_mkdir:00000000 f_mkdir
C:\Users\David\AppData\Local\Temp/ccJL8vgt.s:7693   .text.f_open:00000000 f_open
C:\Users\David\AppData\Local\Temp/ccJL8vgt.s:7998   .text.f_getfree:00000000 f_getfree
C:\Users\David\AppData\Local\Temp/ccJL8vgt.s:8269   .text.f_read:00000000 f_read

UNDEFINED SYMBOLS
__mulsi3
disk_initialize
disk_ioctl
__udivmodsi4
disk_write
get_fattime
disk_status
disk_read
__do_copy_data
__do_clear_bss
